# SymbolsHelper-Confirmed: 6.6.1 amd64
libQt6DataVisualization.so.6 libqt6datavisualization6 #MINVER#
* Build-Depends-Package: qt6-datavisualization-dev
 Qt_6@Qt_6 6.6.1
 Qt_6_PRIVATE_API@Qt_6_PRIVATE_API 6.6.1
 _ZGVZN9QMetaType21registerConverterImplI5QListI21QPersistentModelIndexE9QIterableI13QMetaSequenceEEEbSt8functionIFbPKvPvEES_S_E10unregister@Qt_6 6.6.1
 _ZGVZN9QMetaType21registerConverterImplI5QListI6QColorE9QIterableI13QMetaSequenceEEEbSt8functionIFbPKvPvEES_S_E10unregister@Qt_6 6.6.1
 _ZGVZN9QMetaType21registerConverterImplI5QListIiE9QIterableI13QMetaSequenceEEEbSt8functionIFbPKvPvEES_S_E10unregister@Qt_6 6.6.1
 _ZGVZN9QMetaType21registerConverterImplI5QListIjE9QIterableI13QMetaSequenceEEEbSt8functionIFbPKvPvEES_S_E10unregister@Qt_6 6.6.1
 _ZGVZN9QMetaType23registerMutableViewImplI5QListI21QPersistentModelIndexE9QIterableI13QMetaSequenceEEEbSt8functionIFbPvS8_EES_S_E10unregister@Qt_6 6.6.1
 _ZGVZN9QMetaType23registerMutableViewImplI5QListI6QColorE9QIterableI13QMetaSequenceEEEbSt8functionIFbPvS8_EES_S_E10unregister@Qt_6 6.6.1
 _ZGVZN9QMetaType23registerMutableViewImplI5QListIiE9QIterableI13QMetaSequenceEEEbSt8functionIFbPvS7_EES_S_E10unregister@Qt_6 6.6.1
 _ZGVZN9QMetaType23registerMutableViewImplI5QListIjE9QIterableI13QMetaSequenceEEEbSt8functionIFbPvS7_EES_S_E10unregister@Qt_6 6.6.1
 _ZN10Q3DScatter11qt_metacallEN11QMetaObject4CallEiPPv@Qt_6 6.6.1
 _ZN10Q3DScatter11qt_metacastEPKc@Qt_6 6.6.1
 _ZN10Q3DScatter11releaseAxisEP12QValue3DAxis@Qt_6 6.6.1
 _ZN10Q3DScatter12axisXChangedEP12QValue3DAxis@Qt_6 6.6.1
 _ZN10Q3DScatter12axisYChangedEP12QValue3DAxis@Qt_6 6.6.1
 _ZN10Q3DScatter12axisZChangedEP12QValue3DAxis@Qt_6 6.6.1
 _ZN10Q3DScatter12removeSeriesEP16QScatter3DSeries@Qt_6 6.6.1
 _ZN10Q3DScatter16staticMetaObjectE@Qt_6 6.6.1
 _ZN10Q3DScatter21selectedSeriesChangedEP16QScatter3DSeries@Qt_6 6.6.1
 _ZN10Q3DScatter4dptrEv@Qt_6 6.6.1
 _ZN10Q3DScatter7addAxisEP12QValue3DAxis@Qt_6 6.6.1
 _ZN10Q3DScatter8setAxisXEP12QValue3DAxis@Qt_6 6.6.1
 _ZN10Q3DScatter8setAxisYEP12QValue3DAxis@Qt_6 6.6.1
 _ZN10Q3DScatter8setAxisZEP12QValue3DAxis@Qt_6 6.6.1
 _ZN10Q3DScatter9addSeriesEP16QScatter3DSeries@Qt_6 6.6.1
 _ZN10Q3DScatterC1EPK14QSurfaceFormatP7QWindow@Qt_6 6.6.1
 _ZN10Q3DScatterC2EPK14QSurfaceFormatP7QWindow@Qt_6 6.6.1
 _ZN10Q3DScatterD0Ev@Qt_6 6.6.1
 _ZN10Q3DScatterD1Ev@Qt_6 6.6.1
 _ZN10Q3DScatterD2Ev@Qt_6 6.6.1
 _ZN10Q3DSurface11qt_metacallEN11QMetaObject4CallEiPPv@Qt_6 6.6.1
 _ZN10Q3DSurface11qt_metacastEPKc@Qt_6 6.6.1
 _ZN10Q3DSurface11releaseAxisEP12QValue3DAxis@Qt_6 6.6.1
 _ZN10Q3DSurface12axisXChangedEP12QValue3DAxis@Qt_6 6.6.1
 _ZN10Q3DSurface12axisYChangedEP12QValue3DAxis@Qt_6 6.6.1
 _ZN10Q3DSurface12axisZChangedEP12QValue3DAxis@Qt_6 6.6.1
 _ZN10Q3DSurface12removeSeriesEP16QSurface3DSeries@Qt_6 6.6.1
 _ZN10Q3DSurface16staticMetaObjectE@Qt_6 6.6.1
 _ZN10Q3DSurface21selectedSeriesChangedEP16QSurface3DSeries@Qt_6 6.6.1
 _ZN10Q3DSurface21setFlipHorizontalGridEb@Qt_6 6.6.1
 _ZN10Q3DSurface25flipHorizontalGridChangedEb@Qt_6 6.6.1
 _ZN10Q3DSurface4dptrEv@Qt_6 6.6.1
 _ZN10Q3DSurface7addAxisEP12QValue3DAxis@Qt_6 6.6.1
 _ZN10Q3DSurface8setAxisXEP12QValue3DAxis@Qt_6 6.6.1
 _ZN10Q3DSurface8setAxisYEP12QValue3DAxis@Qt_6 6.6.1
 _ZN10Q3DSurface8setAxisZEP12QValue3DAxis@Qt_6 6.6.1
 _ZN10Q3DSurface9addSeriesEP16QSurface3DSeries@Qt_6 6.6.1
 _ZN10Q3DSurfaceC1EPK14QSurfaceFormatP7QWindow@Qt_6 6.6.1
 _ZN10Q3DSurfaceC2EPK14QSurfaceFormatP7QWindow@Qt_6 6.6.1
 _ZN10Q3DSurfaceD0Ev@Qt_6 6.6.1
 _ZN10Q3DSurfaceD1Ev@Qt_6 6.6.1
 _ZN10Q3DSurfaceD2Ev@Qt_6 6.6.1
 _ZN12QBar3DSeries11qt_metacallEN11QMetaObject4CallEiPPv@Qt_6 6.6.1
 _ZN12QBar3DSeries11qt_metacastEPKc@Qt_6 6.6.1
 _ZN12QBar3DSeries12setDataProxyEP13QBarDataProxy@Qt_6 6.6.1
 _ZN12QBar3DSeries12setMeshAngleEf@Qt_6 6.6.1
 _ZN12QBar3DSeries12setRowColorsERK5QListI6QColorE@Qt_6 6.6.1
 _ZN12QBar3DSeries14setSelectedBarERK6QPoint@Qt_6 6.6.1
 _ZN12QBar3DSeries16dataProxyChangedEP13QBarDataProxy@Qt_6 6.6.1
 _ZN12QBar3DSeries16meshAngleChangedEf@Qt_6 6.6.1
 _ZN12QBar3DSeries16rowColorsChangedERK5QListI6QColorE@Qt_6 6.6.1
 _ZN12QBar3DSeries16staticMetaObjectE@Qt_6 6.6.1
 _ZN12QBar3DSeries18selectedBarChangedERK6QPoint@Qt_6 6.6.1
 _ZN12QBar3DSeries24invalidSelectionPositionEv@Qt_6 6.6.1
 _ZN12QBar3DSeries4dptrEv@Qt_6 6.6.1
 _ZN12QBar3DSeriesC1EP13QBarDataProxyP7QObject@Qt_6 6.6.1
 _ZN12QBar3DSeriesC1EP7QObject@Qt_6 6.6.1
 _ZN12QBar3DSeriesC2EP13QBarDataProxyP7QObject@Qt_6 6.6.1
 _ZN12QBar3DSeriesC2EP7QObject@Qt_6 6.6.1
 _ZN12QBar3DSeriesD0Ev@Qt_6 6.6.1
 _ZN12QBar3DSeriesD1Ev@Qt_6 6.6.1
 _ZN12QBar3DSeriesD2Ev@Qt_6 6.6.1
 _ZN12QBarDataItem15createExtraDataEv@Qt_6 6.6.1
 _ZN12QBarDataItemC1ERKS_@Qt_6 6.6.1
 _ZN12QBarDataItemC1Ef@Qt_6 6.6.1
 _ZN12QBarDataItemC1Eff@Qt_6 6.6.1
 _ZN12QBarDataItemC1Ev@Qt_6 6.6.1
 _ZN12QBarDataItemC2ERKS_@Qt_6 6.6.1
 _ZN12QBarDataItemC2Ef@Qt_6 6.6.1
 _ZN12QBarDataItemC2Eff@Qt_6 6.6.1
 _ZN12QBarDataItemC2Ev@Qt_6 6.6.1
 _ZN12QBarDataItemD1Ev@Qt_6 6.6.1
 _ZN12QBarDataItemD2Ev@Qt_6 6.6.1
 _ZN12QBarDataItemaSERKS_@Qt_6 6.6.1
 _ZN12QValue3DAxis11qt_metacallEN11QMetaObject4CallEiPPv@Qt_6 6.6.1
 _ZN12QValue3DAxis11qt_metacastEPKc@Qt_6 6.6.1
 _ZN12QValue3DAxis11setReversedEb@Qt_6 6.6.1
 _ZN12QValue3DAxis12setFormatterEP21QValue3DAxisFormatter@Qt_6 6.6.1
 _ZN12QValue3DAxis14setLabelFormatERK7QString@Qt_6 6.6.1
 _ZN12QValue3DAxis15reversedChangedEb@Qt_6 6.6.1
 _ZN12QValue3DAxis15setSegmentCountEi@Qt_6 6.6.1
 _ZN12QValue3DAxis16formatterChangedEP21QValue3DAxisFormatter@Qt_6 6.6.1
 _ZN12QValue3DAxis16staticMetaObjectE@Qt_6 6.6.1
 _ZN12QValue3DAxis18labelFormatChangedERK7QString@Qt_6 6.6.1
 _ZN12QValue3DAxis18setSubSegmentCountEi@Qt_6 6.6.1
 _ZN12QValue3DAxis19segmentCountChangedEi@Qt_6 6.6.1
 _ZN12QValue3DAxis22subSegmentCountChangedEi@Qt_6 6.6.1
 _ZN12QValue3DAxis4dptrEv@Qt_6 6.6.1
 _ZN12QValue3DAxisC1EP7QObject@Qt_6 6.6.1
 _ZN12QValue3DAxisC2EP7QObject@Qt_6 6.6.1
 _ZN12QValue3DAxisD0Ev@Qt_6 6.6.1
 _ZN12QValue3DAxisD1Ev@Qt_6 6.6.1
 _ZN12QValue3DAxisD2Ev@Qt_6 6.6.1
 _ZN13QBarDataProxy10arrayResetEv@Qt_6 6.6.1
 _ZN13QBarDataProxy10insertRowsEiRK5QListIPS0_I12QBarDataItemEE@Qt_6 6.6.1
 _ZN13QBarDataProxy10insertRowsEiRK5QListIPS0_I12QBarDataItemEERKS0_I7QStringE@Qt_6 6.6.1
 _ZN13QBarDataProxy10removeRowsEiib@Qt_6 6.6.1
 _ZN13QBarDataProxy10resetArrayEP5QListIPS0_I12QBarDataItemEE@Qt_6 6.6.1
 _ZN13QBarDataProxy10resetArrayEP5QListIPS0_I12QBarDataItemEERKS0_I7QStringES9_@Qt_6 6.6.1
 _ZN13QBarDataProxy10resetArrayEv@Qt_6 6.6.1
 _ZN13QBarDataProxy11itemChangedEii@Qt_6 6.6.1
 _ZN13QBarDataProxy11qt_metacallEN11QMetaObject4CallEiPPv@Qt_6 6.6.1
 _ZN13QBarDataProxy11qt_metacastEPKc@Qt_6 6.6.1
 _ZN13QBarDataProxy11rowsChangedEii@Qt_6 6.6.1
 _ZN13QBarDataProxy11rowsRemovedEii@Qt_6 6.6.1
 _ZN13QBarDataProxy12rowsInsertedEii@Qt_6 6.6.1
 _ZN13QBarDataProxy12setRowLabelsERK5QListI7QStringE@Qt_6 6.6.1
 _ZN13QBarDataProxy13seriesChangedEP12QBar3DSeries@Qt_6 6.6.1
 _ZN13QBarDataProxy15rowCountChangedEi@Qt_6 6.6.1
 _ZN13QBarDataProxy15setColumnLabelsERK5QListI7QStringE@Qt_6 6.6.1
 _ZN13QBarDataProxy16rowLabelsChangedEv@Qt_6 6.6.1
 _ZN13QBarDataProxy16staticMetaObjectE@Qt_6 6.6.1
 _ZN13QBarDataProxy19columnLabelsChangedEv@Qt_6 6.6.1
 _ZN13QBarDataProxy4dptrEv@Qt_6 6.6.1
 _ZN13QBarDataProxy6addRowEP5QListI12QBarDataItemE@Qt_6 6.6.1
 _ZN13QBarDataProxy6addRowEP5QListI12QBarDataItemERK7QString@Qt_6 6.6.1
 _ZN13QBarDataProxy6setRowEiP5QListI12QBarDataItemE@Qt_6 6.6.1
 _ZN13QBarDataProxy6setRowEiP5QListI12QBarDataItemERK7QString@Qt_6 6.6.1
 _ZN13QBarDataProxy7addRowsERK5QListIPS0_I12QBarDataItemEE@Qt_6 6.6.1
 _ZN13QBarDataProxy7addRowsERK5QListIPS0_I12QBarDataItemEERKS0_I7QStringE@Qt_6 6.6.1
 _ZN13QBarDataProxy7setItemERK6QPointRK12QBarDataItem@Qt_6 6.6.1
 _ZN13QBarDataProxy7setItemEiiRK12QBarDataItem@Qt_6 6.6.1
 _ZN13QBarDataProxy7setRowsEiRK5QListIPS0_I12QBarDataItemEE@Qt_6 6.6.1
 _ZN13QBarDataProxy7setRowsEiRK5QListIPS0_I12QBarDataItemEERKS0_I7QStringE@Qt_6 6.6.1
 _ZN13QBarDataProxy9insertRowEiP5QListI12QBarDataItemE@Qt_6 6.6.1
 _ZN13QBarDataProxy9insertRowEiP5QListI12QBarDataItemERK7QString@Qt_6 6.6.1
 _ZN13QBarDataProxy9rowsAddedEii@Qt_6 6.6.1
 _ZN13QBarDataProxyC1EP20QBarDataProxyPrivateP7QObject@Qt_6_PRIVATE_API 6.6.1
 _ZN13QBarDataProxyC1EP7QObject@Qt_6 6.6.1
 _ZN13QBarDataProxyC2EP20QBarDataProxyPrivateP7QObject@Qt_6_PRIVATE_API 6.6.1
 _ZN13QBarDataProxyC2EP7QObject@Qt_6 6.6.1
 _ZN13QBarDataProxyD0Ev@Qt_6 6.6.1
 _ZN13QBarDataProxyD1Ev@Qt_6 6.6.1
 _ZN13QBarDataProxyD2Ev@Qt_6 6.6.1
 _ZN13QCustom3DItem10setScalingERK9QVector3D@Qt_6 6.6.1
 _ZN13QCustom3DItem10setVisibleEb@Qt_6 6.6.1
 _ZN13QCustom3DItem11qt_metacallEN11QMetaObject4CallEiPPv@Qt_6 6.6.1
 _ZN13QCustom3DItem11qt_metacastEPKc@Qt_6 6.6.1
 _ZN13QCustom3DItem11setMeshFileERK7QString@Qt_6 6.6.1
 _ZN13QCustom3DItem11setPositionERK9QVector3D@Qt_6 6.6.1
 _ZN13QCustom3DItem11setRotationERK11QQuaternion@Qt_6 6.6.1
 _ZN13QCustom3DItem14scalingChangedERK9QVector3D@Qt_6 6.6.1
 _ZN13QCustom3DItem14setTextureFileERK7QString@Qt_6 6.6.1
 _ZN13QCustom3DItem14visibleChangedEb@Qt_6 6.6.1
 _ZN13QCustom3DItem15meshFileChangedERK7QString@Qt_6 6.6.1
 _ZN13QCustom3DItem15positionChangedERK9QVector3D@Qt_6 6.6.1
 _ZN13QCustom3DItem15rotationChangedERK11QQuaternion@Qt_6 6.6.1
 _ZN13QCustom3DItem15setTextureImageERK6QImage@Qt_6 6.6.1
 _ZN13QCustom3DItem16setShadowCastingEb@Qt_6 6.6.1
 _ZN13QCustom3DItem16staticMetaObjectE@Qt_6 6.6.1
 _ZN13QCustom3DItem18setScalingAbsoluteEb@Qt_6 6.6.1
 _ZN13QCustom3DItem18textureFileChangedERK7QString@Qt_6 6.6.1
 _ZN13QCustom3DItem19setPositionAbsoluteEb@Qt_6 6.6.1
 _ZN13QCustom3DItem20shadowCastingChangedEb@Qt_6 6.6.1
 _ZN13QCustom3DItem22scalingAbsoluteChangedEb@Qt_6 6.6.1
 _ZN13QCustom3DItem23positionAbsoluteChangedEb@Qt_6 6.6.1
 _ZN13QCustom3DItem23setRotationAxisAndAngleERK9QVector3Df@Qt_6 6.6.1
 _ZN13QCustom3DItem8rotationEv@Qt_6 6.6.1
 _ZN13QCustom3DItemC1EP20QCustom3DItemPrivateP7QObject@Qt_6_PRIVATE_API 6.6.1
 _ZN13QCustom3DItemC1EP7QObject@Qt_6 6.6.1
 _ZN13QCustom3DItemC1ERK7QStringRK9QVector3DS5_RK11QQuaternionRK6QImageP7QObject@Qt_6 6.6.1
 _ZN13QCustom3DItemC2EP20QCustom3DItemPrivateP7QObject@Qt_6_PRIVATE_API 6.6.1
 _ZN13QCustom3DItemC2EP7QObject@Qt_6 6.6.1
 _ZN13QCustom3DItemC2ERK7QStringRK9QVector3DS5_RK11QQuaternionRK6QImageP7QObject@Qt_6 6.6.1
 _ZN13QCustom3DItemD0Ev@Qt_6 6.6.1
 _ZN13QCustom3DItemD1Ev@Qt_6 6.6.1
 _ZN13QCustom3DItemD2Ev@Qt_6 6.6.1
 _ZN13QMetaSequence12MetaSequenceI5QListI21QPersistentModelIndexEE5valueE@Qt_6 6.6.1
 _ZN13QMetaSequence12MetaSequenceI5QListI6QColorEE5valueE@Qt_6 6.6.1
 _ZN13QMetaSequence12MetaSequenceI5QListIiEE5valueE@Qt_6 6.6.1
 _ZN13QMetaSequence12MetaSequenceI5QListIjEE5valueE@Qt_6 6.6.1
 _ZN14Bars3DRenderer10drawLabelsEbPK9Q3DCameraRK10QMatrix4x4S5_@Qt_6_PRIVATE_API 6.6.1
 _ZN14Bars3DRenderer10isSelectedEiiPK20BarSeriesRenderCache@Qt_6_PRIVATE_API 6.6.1
 _ZN14Bars3DRenderer10updateDataEv@Qt_6_PRIVATE_API 6.6.1
 _ZN14Bars3DRenderer10updateRowsERK5QListIN16Bars3DController9ChangeRowEE@Qt_6_PRIVATE_API 6.6.1
 _ZN14Bars3DRenderer11initShadersERK7QStringS2_@Qt_6_PRIVATE_API 6.6.1
 _ZN14Bars3DRenderer11qt_metacallEN11QMetaObject4CallEiPPv@Qt_6_PRIVATE_API 6.6.1
 _ZN14Bars3DRenderer11qt_metacastEPKc@Qt_6_PRIVATE_API 6.6.1
 _ZN14Bars3DRenderer11updateItemsERK5QListIN16Bars3DController10ChangeItemEE@Qt_6_PRIVATE_API 6.6.1
 _ZN14Bars3DRenderer11updateSceneEP8Q3DScene@Qt_6_PRIVATE_API 6.6.1
 _ZN14Bars3DRenderer12updateMarginEf@Qt_6_PRIVATE_API 6.6.1
 _ZN14Bars3DRenderer12updateSeriesERK5QListIP17QAbstract3DSeriesE@Qt_6_PRIVATE_API 6.6.1
 _ZN14Bars3DRenderer13drawGridLinesERK10QMatrix4x4S2_S2_@Qt_6_PRIVATE_API 6.6.1
 _ZN14Bars3DRenderer14contextCleanupEv@Qt_6_PRIVATE_API 6.6.1
 _ZN14Bars3DRenderer14createNewCacheEP17QAbstract3DSeries@Qt_6_PRIVATE_API 6.6.1
 _ZN14Bars3DRenderer14drawBackgroundEfRK10QMatrix4x4S2_S2_bb@Qt_6_PRIVATE_API 6.6.1
 _ZN14Bars3DRenderer14updateBarSpecsEfRK6QSizeFb@Qt_6_PRIVATE_API 6.6.1
 _ZN14Bars3DRenderer14updateTexturesEv@Qt_6_PRIVATE_API 6.6.1
 _ZN14Bars3DRenderer15drawSlicedSceneEv@Qt_6_PRIVATE_API 6.6.1
 _ZN14Bars3DRenderer15fixCameraTargetER9QVector3D@Qt_6_PRIVATE_API 6.6.1
 _ZN14Bars3DRenderer15fixMeshFileNameER7QStringN17QAbstract3DSeries4MeshE@Qt_6_PRIVATE_API 6.6.1
 _ZN14Bars3DRenderer15initDepthShaderEv@Qt_6_PRIVATE_API 6.6.1
 _ZN14Bars3DRenderer15updateAxisRangeEN15QAbstract3DAxis15AxisOrientationEff@Qt_6_PRIVATE_API 6.6.1
 _ZN14Bars3DRenderer16initializeOpenGLEv@Qt_6_PRIVATE_API 6.6.1
 _ZN14Bars3DRenderer16staticMetaObjectE@Qt_6_PRIVATE_API 6.6.1
 _ZN14Bars3DRenderer16updateFloorLevelEf@Qt_6_PRIVATE_API 6.6.1
 _ZN14Bars3DRenderer17updateAspectRatioEf@Qt_6_PRIVATE_API 6.6.1
 _ZN14Bars3DRenderer17updateDepthBufferEv@Qt_6_PRIVATE_API 6.6.1
 _ZN14Bars3DRenderer17updateSelectedBarERK6QPointP12QBar3DSeries@Qt_6_PRIVATE_API 6.6.1
 _ZN14Bars3DRenderer18loadBackgroundMeshEv@Qt_6_PRIVATE_API 6.6.1
 _ZN14Bars3DRenderer18resetClickedStatusEv@Qt_6_PRIVATE_API 6.6.1
 _ZN14Bars3DRenderer18updateAxisReversedEN15QAbstract3DAxis15AxisOrientationEb@Qt_6_PRIVATE_API 6.6.1
 _ZN14Bars3DRenderer19initGradientShadersERK7QStringS2_@Qt_6_PRIVATE_API 6.6.1
 _ZN14Bars3DRenderer19initSelectionBufferEv@Qt_6_PRIVATE_API 6.6.1
 _ZN14Bars3DRenderer19initSelectionShaderEv@Qt_6_PRIVATE_API 6.6.1
 _ZN14Bars3DRenderer19updateShadowQualityEN16QAbstract3DGraph13ShadowQualityE@Qt_6_PRIVATE_API 6.6.1
 _ZN14Bars3DRenderer19updateSlicingActiveEb@Qt_6_PRIVATE_API 6.6.1
 _ZN14Bars3DRenderer20getVisibleItemBoundsER9QVector3DS1_@Qt_6_PRIVATE_API 6.6.1
 _ZN14Bars3DRenderer21initBackgroundShadersERK7QStringS2_@Qt_6_PRIVATE_API 6.6.1
 _ZN14Bars3DRenderer21updateBarSeriesMarginERK6QSizeF@Qt_6_PRIVATE_API 6.6.1
 _ZN14Bars3DRenderer22selectionColorToSeriesERK9QVector4D@Qt_6_PRIVATE_API 6.6.1
 _ZN14Bars3DRenderer24updateMultiSeriesScalingEb@Qt_6_PRIVATE_API 6.6.1
 _ZN14Bars3DRenderer25calculateHeightAdjustmentEv@Qt_6_PRIVATE_API 6.6.1
 _ZN14Bars3DRenderer28calculateSceneScalingFactorsEv@Qt_6_PRIVATE_API 6.6.1
 _ZN14Bars3DRenderer28calculateSeriesStartPositionEv@Qt_6_PRIVATE_API 6.6.1
 _ZN14Bars3DRenderer28convertPositionToTranslationERK9QVector3Db@Qt_6_PRIVATE_API 6.6.1
 _ZN14Bars3DRenderer29selectionColorToArrayPositionERK9QVector4D@Qt_6_PRIVATE_API 6.6.1
 _ZN14Bars3DRenderer6renderEj@Qt_6_PRIVATE_API 6.6.1
 _ZN14Bars3DRenderer8drawBarsEPP13BarRenderItemRK10QMatrix4x4S5_S5_iiiiiif@Qt_6_PRIVATE_API 6.6.1
 _ZN14Bars3DRenderer9drawSceneEj@Qt_6_PRIVATE_API 6.6.1
 _ZN14Bars3DRendererC1EP16Bars3DController@Qt_6_PRIVATE_API 6.6.1
 _ZN14Bars3DRendererC2EP16Bars3DController@Qt_6_PRIVATE_API 6.6.1
 _ZN14Bars3DRendererD0Ev@Qt_6_PRIVATE_API 6.6.1
 _ZN14Bars3DRendererD1Ev@Qt_6_PRIVATE_API 6.6.1
 _ZN14Bars3DRendererD2Ev@Qt_6_PRIVATE_API 6.6.1
 _ZN14QCustom3DLabel11fontChangedERK5QFont@Qt_6 6.6.1
 _ZN14QCustom3DLabel11qt_metacallEN11QMetaObject4CallEiPPv@Qt_6 6.6.1
 _ZN14QCustom3DLabel11qt_metacastEPKc@Qt_6 6.6.1
 _ZN14QCustom3DLabel11textChangedERK7QString@Qt_6 6.6.1
 _ZN14QCustom3DLabel12setTextColorERK6QColor@Qt_6 6.6.1
 _ZN14QCustom3DLabel15setFacingCameraEb@Qt_6 6.6.1
 _ZN14QCustom3DLabel16setBorderEnabledEb@Qt_6 6.6.1
 _ZN14QCustom3DLabel16staticMetaObjectE@Qt_6 6.6.1
 _ZN14QCustom3DLabel16textColorChangedERK6QColor@Qt_6 6.6.1
 _ZN14QCustom3DLabel18setBackgroundColorERK6QColor@Qt_6 6.6.1
 _ZN14QCustom3DLabel19facingCameraChangedEb@Qt_6 6.6.1
 _ZN14QCustom3DLabel20borderEnabledChangedEb@Qt_6 6.6.1
 _ZN14QCustom3DLabel20setBackgroundEnabledEb@Qt_6 6.6.1
 _ZN14QCustom3DLabel22backgroundColorChangedERK6QColor@Qt_6 6.6.1
 _ZN14QCustom3DLabel24backgroundEnabledChangedEb@Qt_6 6.6.1
 _ZN14QCustom3DLabel4dptrEv@Qt_6 6.6.1
 _ZN14QCustom3DLabel7setFontERK5QFont@Qt_6 6.6.1
 _ZN14QCustom3DLabel7setTextERK7QString@Qt_6 6.6.1
 _ZN14QCustom3DLabelC1EP7QObject@Qt_6 6.6.1
 _ZN14QCustom3DLabelC1ERK7QStringRK5QFontRK9QVector3DS8_RK11QQuaternionP7QObject@Qt_6 6.6.1
 _ZN14QCustom3DLabelC2EP7QObject@Qt_6 6.6.1
 _ZN14QCustom3DLabelC2ERK7QStringRK5QFontRK9QVector3DS8_RK11QQuaternionP7QObject@Qt_6 6.6.1
 _ZN14QCustom3DLabelD0Ev@Qt_6 6.6.1
 _ZN14QCustom3DLabelD1Ev@Qt_6 6.6.1
 _ZN14QCustom3DLabelD2Ev@Qt_6 6.6.1
 _ZN15Q3DInputHandler10wheelEventEP11QWheelEvent@Qt_6 6.6.1
 _ZN15Q3DInputHandler11qt_metacallEN11QMetaObject4CallEiPPv@Qt_6 6.6.1
 _ZN15Q3DInputHandler11qt_metacastEPKc@Qt_6 6.6.1
 _ZN15Q3DInputHandler14mouseMoveEventEP11QMouseEventRK6QPoint@Qt_6 6.6.1
 _ZN15Q3DInputHandler14setZoomEnabledEb@Qt_6 6.6.1
 _ZN15Q3DInputHandler15mousePressEventEP11QMouseEventRK6QPoint@Qt_6 6.6.1
 _ZN15Q3DInputHandler16staticMetaObjectE@Qt_6 6.6.1
 _ZN15Q3DInputHandler17mouseReleaseEventEP11QMouseEventRK6QPoint@Qt_6 6.6.1
 _ZN15Q3DInputHandler18setRotationEnabledEb@Qt_6 6.6.1
 _ZN15Q3DInputHandler18zoomEnabledChangedEb@Qt_6 6.6.1
 _ZN15Q3DInputHandler19setSelectionEnabledEb@Qt_6 6.6.1
 _ZN15Q3DInputHandler22rotationEnabledChangedEb@Qt_6 6.6.1
 _ZN15Q3DInputHandler22setZoomAtTargetEnabledEb@Qt_6 6.6.1
 _ZN15Q3DInputHandler23selectionEnabledChangedEb@Qt_6 6.6.1
 _ZN15Q3DInputHandler26zoomAtTargetEnabledChangedEb@Qt_6 6.6.1
 _ZN15Q3DInputHandlerC1EP7QObject@Qt_6 6.6.1
 _ZN15Q3DInputHandlerC2EP7QObject@Qt_6 6.6.1
 _ZN15Q3DInputHandlerD0Ev@Qt_6 6.6.1
 _ZN15Q3DInputHandlerD1Ev@Qt_6 6.6.1
 _ZN15Q3DInputHandlerD2Ev@Qt_6 6.6.1
 _ZN15Q3DScenePrivate10glViewportEv@Qt_6_PRIVATE_API 6.6.1
 _ZN15Q3DScenePrivate10needRenderEv@Qt_6_PRIVATE_API 6.6.1
 _ZN15Q3DScenePrivate11qt_metacallEN11QMetaObject4CallEiPPv@Qt_6_PRIVATE_API 6.6.1
 _ZN15Q3DScenePrivate11qt_metacastEPKc@Qt_6_PRIVATE_API 6.6.1
 _ZN15Q3DScenePrivate11setViewportERK5QRect@Qt_6_PRIVATE_API 6.6.1
 _ZN15Q3DScenePrivate13setWindowSizeERK5QSize@Qt_6_PRIVATE_API 6.6.1
 _ZN15Q3DScenePrivate15setViewportSizeEii@Qt_6_PRIVATE_API 6.6.1
 _ZN15Q3DScenePrivate16staticMetaObjectE@Qt_6_PRIVATE_API 6.6.1
 _ZN15Q3DScenePrivate16updateGLViewportEv@Qt_6_PRIVATE_API 6.6.1
 _ZN15Q3DScenePrivate20glPrimarySubViewportEv@Qt_6_PRIVATE_API 6.6.1
 _ZN15Q3DScenePrivate20updateGLSubViewportsEv@Qt_6_PRIVATE_API 6.6.1
 _ZN15Q3DScenePrivate21calculateSubViewportsEv@Qt_6_PRIVATE_API 6.6.1
 _ZN15Q3DScenePrivate22glSecondarySubViewportEv@Qt_6_PRIVATE_API 6.6.1
 _ZN15Q3DScenePrivate32setLightPositionRelativeToCameraERK9QVector3Dff@Qt_6_PRIVATE_API 6.6.1
 _ZN15Q3DScenePrivate4syncERS_@Qt_6_PRIVATE_API 6.6.1
 _ZN15Q3DScenePrivate9markDirtyEv@Qt_6_PRIVATE_API 6.6.1
 _ZN15Q3DScenePrivateC1EP8Q3DScene@Qt_6_PRIVATE_API 6.6.1
 _ZN15Q3DScenePrivateC2EP8Q3DScene@Qt_6_PRIVATE_API 6.6.1
 _ZN15Q3DScenePrivateD0Ev@Qt_6_PRIVATE_API 6.6.1
 _ZN15Q3DScenePrivateD1Ev@Qt_6_PRIVATE_API 6.6.1
 _ZN15Q3DScenePrivateD2Ev@Qt_6_PRIVATE_API 6.6.1
 _ZN15Q3DThemePrivate10needRenderEv@Qt_6_PRIVATE_API 6.6.1
 _ZN15Q3DThemePrivate11qt_metacallEN11QMetaObject4CallEiPPv@Qt_6_PRIVATE_API 6.6.1
 _ZN15Q3DThemePrivate11qt_metacastEPKc@Qt_6_PRIVATE_API 6.6.1
 _ZN15Q3DThemePrivate14resetDirtyBitsEv@Qt_6_PRIVATE_API 6.6.1
 _ZN15Q3DThemePrivate16staticMetaObjectE@Qt_6_PRIVATE_API 6.6.1
 _ZN15Q3DThemePrivate4syncERS_@Qt_6_PRIVATE_API 6.6.1
 _ZN15Q3DThemePrivateC1EP8Q3DTheme@Qt_6_PRIVATE_API 6.6.1
 _ZN15Q3DThemePrivateC2EP8Q3DTheme@Qt_6_PRIVATE_API 6.6.1
 _ZN15Q3DThemePrivateD0Ev@Qt_6_PRIVATE_API 6.6.1
 _ZN15Q3DThemePrivateD1Ev@Qt_6_PRIVATE_API 6.6.1
 _ZN15Q3DThemePrivateD2Ev@Qt_6_PRIVATE_API 6.6.1
 _ZN15QAbstract3DAxis10maxChangedEf@Qt_6 6.6.1
 _ZN15QAbstract3DAxis10minChangedEf@Qt_6 6.6.1
 _ZN15QAbstract3DAxis11qt_metacallEN11QMetaObject4CallEiPPv@Qt_6 6.6.1
 _ZN15QAbstract3DAxis11qt_metacastEPKc@Qt_6 6.6.1
 _ZN15QAbstract3DAxis12rangeChangedEff@Qt_6 6.6.1
 _ZN15QAbstract3DAxis12titleChangedERK7QString@Qt_6 6.6.1
 _ZN15QAbstract3DAxis13labelsChangedEv@Qt_6 6.6.1
 _ZN15QAbstract3DAxis13setTitleFixedEb@Qt_6 6.6.1
 _ZN15QAbstract3DAxis15setTitleVisibleEb@Qt_6 6.6.1
 _ZN15QAbstract3DAxis16staticMetaObjectE@Qt_6 6.6.1
 _ZN15QAbstract3DAxis17titleFixedChangedEb@Qt_6 6.6.1
 _ZN15QAbstract3DAxis18orientationChangedENS_15AxisOrientationE@Qt_6 6.6.1
 _ZN15QAbstract3DAxis18setAutoAdjustRangeEb@Qt_6 6.6.1
 _ZN15QAbstract3DAxis20setLabelAutoRotationEf@Qt_6 6.6.1
 _ZN15QAbstract3DAxis22autoAdjustRangeChangedEb@Qt_6 6.6.1
 _ZN15QAbstract3DAxis22titleVisibilityChangedEb@Qt_6 6.6.1
 _ZN15QAbstract3DAxis24labelAutoRotationChangedEf@Qt_6 6.6.1
 _ZN15QAbstract3DAxis6setMaxEf@Qt_6 6.6.1
 _ZN15QAbstract3DAxis6setMinEf@Qt_6 6.6.1
 _ZN15QAbstract3DAxis8setRangeEff@Qt_6 6.6.1
 _ZN15QAbstract3DAxis8setTitleERK7QString@Qt_6 6.6.1
 _ZN15QAbstract3DAxis9setLabelsERK5QListI7QStringE@Qt_6 6.6.1
 _ZN15QAbstract3DAxisC1EP22QAbstract3DAxisPrivateP7QObject@Qt_6_PRIVATE_API 6.6.1
 _ZN15QAbstract3DAxisC2EP22QAbstract3DAxisPrivateP7QObject@Qt_6_PRIVATE_API 6.6.1
 _ZN15QAbstract3DAxisD0Ev@Qt_6 6.6.1
 _ZN15QAbstract3DAxisD1Ev@Qt_6 6.6.1
 _ZN15QAbstract3DAxisD2Ev@Qt_6 6.6.1
 _ZN15QCategory3DAxis11qt_metacallEN11QMetaObject4CallEiPPv@Qt_6 6.6.1
 _ZN15QCategory3DAxis11qt_metacastEPKc@Qt_6 6.6.1
 _ZN15QCategory3DAxis13labelsChangedEv@Qt_6 6.6.1
 _ZN15QCategory3DAxis16staticMetaObjectE@Qt_6 6.6.1
 _ZN15QCategory3DAxis4dptrEv@Qt_6 6.6.1
 _ZN15QCategory3DAxis9setLabelsERK5QListI7QStringE@Qt_6 6.6.1
 _ZN15QCategory3DAxisC1EP7QObject@Qt_6 6.6.1
 _ZN15QCategory3DAxisC2EP7QObject@Qt_6 6.6.1
 _ZN15QCategory3DAxisD0Ev@Qt_6 6.6.1
 _ZN15QCategory3DAxisD1Ev@Qt_6 6.6.1
 _ZN15QCategory3DAxisD2Ev@Qt_6 6.6.1
 _ZN15QCustom3DVolume11qt_metacallEN11QMetaObject4CallEiPPv@Qt_6 6.6.1
 _ZN15QCustom3DVolume11qt_metacastEPKc@Qt_6 6.6.1
 _ZN15QCustom3DVolume11renderSliceEN2Qt4AxisEi@Qt_6 6.6.1
 _ZN15QCustom3DVolume13setColorTableERK5QListIjE@Qt_6 6.6.1
 _ZN15QCustom3DVolume13setDrawSlicesEb@Qt_6 6.6.1
 _ZN15QCustom3DVolume14setSliceIndexXEi@Qt_6 6.6.1
 _ZN15QCustom3DVolume14setSliceIndexYEi@Qt_6 6.6.1
 _ZN15QCustom3DVolume14setSliceIndexZEi@Qt_6 6.6.1
 _ZN15QCustom3DVolume14setTextureDataEP5QListIhE@Qt_6 6.6.1
 _ZN15QCustom3DVolume15setSliceIndicesEiii@Qt_6 6.6.1
 _ZN15QCustom3DVolume15setTextureDepthEi@Qt_6 6.6.1
 _ZN15QCustom3DVolume15setTextureWidthEi@Qt_6 6.6.1
 _ZN15QCustom3DVolume16setTextureFormatEN6QImage6FormatE@Qt_6 6.6.1
 _ZN15QCustom3DVolume16setTextureHeightEi@Qt_6 6.6.1
 _ZN15QCustom3DVolume16staticMetaObjectE@Qt_6 6.6.1
 _ZN15QCustom3DVolume17colorTableChangedEv@Qt_6 6.6.1
 _ZN15QCustom3DVolume17createTextureDataERK5QListIP6QImageE@Qt_6 6.6.1
 _ZN15QCustom3DVolume17drawSlicesChangedEb@Qt_6 6.6.1
 _ZN15QCustom3DVolume17setSliceFrameGapsERK9QVector3D@Qt_6 6.6.1
 _ZN15QCustom3DVolume17setSubTextureDataEN2Qt4AxisEiPKh@Qt_6 6.6.1
 _ZN15QCustom3DVolume17setSubTextureDataEN2Qt4AxisEiRK6QImage@Qt_6 6.6.1
 _ZN15QCustom3DVolume18setAlphaMultiplierEf@Qt_6 6.6.1
 _ZN15QCustom3DVolume18setDrawSliceFramesEb@Qt_6 6.6.1
 _ZN15QCustom3DVolume18setPreserveOpacityEb@Qt_6 6.6.1
 _ZN15QCustom3DVolume18setSliceFrameColorERK6QColor@Qt_6 6.6.1
 _ZN15QCustom3DVolume18sliceIndexXChangedEi@Qt_6 6.6.1
 _ZN15QCustom3DVolume18sliceIndexYChangedEi@Qt_6 6.6.1
 _ZN15QCustom3DVolume18sliceIndexZChangedEi@Qt_6 6.6.1
 _ZN15QCustom3DVolume18textureDataChangedEP5QListIhE@Qt_6 6.6.1
 _ZN15QCustom3DVolume19setSliceFrameWidthsERK9QVector3D@Qt_6 6.6.1
 _ZN15QCustom3DVolume19setUseHighDefShaderEb@Qt_6 6.6.1
 _ZN15QCustom3DVolume19textureDepthChangedEi@Qt_6 6.6.1
 _ZN15QCustom3DVolume19textureWidthChangedEi@Qt_6 6.6.1
 _ZN15QCustom3DVolume20setTextureDimensionsEiii@Qt_6 6.6.1
 _ZN15QCustom3DVolume20textureFormatChangedEN6QImage6FormatE@Qt_6 6.6.1
 _ZN15QCustom3DVolume20textureHeightChangedEi@Qt_6 6.6.1
 _ZN15QCustom3DVolume21sliceFrameGapsChangedERK9QVector3D@Qt_6 6.6.1
 _ZN15QCustom3DVolume22alphaMultiplierChangedEf@Qt_6 6.6.1
 _ZN15QCustom3DVolume22drawSliceFramesChangedEb@Qt_6 6.6.1
 _ZN15QCustom3DVolume22preserveOpacityChangedEb@Qt_6 6.6.1
 _ZN15QCustom3DVolume22sliceFrameColorChangedERK6QColor@Qt_6 6.6.1
 _ZN15QCustom3DVolume23sliceFrameWidthsChangedERK9QVector3D@Qt_6 6.6.1
 _ZN15QCustom3DVolume23useHighDefShaderChangedEb@Qt_6 6.6.1
 _ZN15QCustom3DVolume24setSliceFrameThicknessesERK9QVector3D@Qt_6 6.6.1
 _ZN15QCustom3DVolume28sliceFrameThicknessesChangedERK9QVector3D@Qt_6 6.6.1
 _ZN15QCustom3DVolume4dptrEv@Qt_6 6.6.1
 _ZN15QCustom3DVolumeC1EP7QObject@Qt_6 6.6.1
 _ZN15QCustom3DVolumeC1ERK9QVector3DS2_RK11QQuaternioniiiP5QListIhEN6QImage6FormatERKS6_IjEP7QObject@Qt_6 6.6.1
 _ZN15QCustom3DVolumeC2EP7QObject@Qt_6 6.6.1
 _ZN15QCustom3DVolumeC2ERK9QVector3DS2_RK11QQuaternioniiiP5QListIhEN6QImage6FormatERKS6_IjEP7QObject@Qt_6 6.6.1
 _ZN15QCustom3DVolumeD0Ev@Qt_6 6.6.1
 _ZN15QCustom3DVolumeD1Ev@Qt_6 6.6.1
 _ZN15QCustom3DVolumeD2Ev@Qt_6 6.6.1
 _ZN16Bars3DController10barSpacingEv@Qt_6_PRIVATE_API 6.6.1
 _ZN16Bars3DController11qt_metacallEN11QMetaObject4CallEiPPv@Qt_6_PRIVATE_API 6.6.1
 _ZN16Bars3DController11qt_metacastEPKc@Qt_6_PRIVATE_API 6.6.1
 _ZN16Bars3DController11setBarSpecsEfRK6QSizeFb@Qt_6_PRIVATE_API 6.6.1
 _ZN16Bars3DController12barThicknessEv@Qt_6_PRIVATE_API 6.6.1
 _ZN16Bars3DController12insertSeriesEiP17QAbstract3DSeries@Qt_6_PRIVATE_API 6.6.1
 _ZN16Bars3DController12removeSeriesEP17QAbstract3DSeries@Qt_6_PRIVATE_API 6.6.1
 _ZN16Bars3DController13barSeriesListEv@Qt_6_PRIVATE_API 6.6.1
 _ZN16Bars3DController13setFloorLevelEf@Qt_6_PRIVATE_API 6.6.1
 _ZN16Bars3DController14clearSelectionEv@Qt_6_PRIVATE_API 6.6.1
 _ZN16Bars3DController14setSelectedBarERK6QPointP12QBar3DSeriesb@Qt_6_PRIVATE_API 6.6.1
 _ZN16Bars3DController15barSeriesMarginEv@Qt_6_PRIVATE_API 6.6.1
 _ZN16Bars3DController15handleRowsAddedEii@Qt_6_PRIVATE_API 6.6.1
 _ZN16Bars3DController16adjustAxisRangesEv@Qt_6_PRIVATE_API 6.6.1
 _ZN16Bars3DController16handleArrayResetEv@Qt_6_PRIVATE_API 6.6.1
 _ZN16Bars3DController16initializeOpenGLEv@Qt_6_PRIVATE_API 6.6.1
 _ZN16Bars3DController16setPrimarySeriesEP12QBar3DSeries@Qt_6_PRIVATE_API 6.6.1
 _ZN16Bars3DController16setSelectionModeE6QFlagsIN16QAbstract3DGraph13SelectionFlagEE@Qt_6_PRIVATE_API 6.6.1
 _ZN16Bars3DController16staticMetaObjectE@Qt_6_PRIVATE_API 6.6.1
 _ZN16Bars3DController17createDefaultAxisEN15QAbstract3DAxis15AxisOrientationE@Qt_6_PRIVATE_API 6.6.1
 _ZN16Bars3DController17handleItemChangedEii@Qt_6_PRIVATE_API 6.6.1
 _ZN16Bars3DController17handleRowsChangedEii@Qt_6_PRIVATE_API 6.6.1
 _ZN16Bars3DController17handleRowsRemovedEii@Qt_6_PRIVATE_API 6.6.1
 _ZN16Bars3DController17isBarSpecRelativeEv@Qt_6_PRIVATE_API 6.6.1
 _ZN16Bars3DController18handlePendingClickEv@Qt_6_PRIVATE_API 6.6.1
 _ZN16Bars3DController18handleRowsInsertedEii@Qt_6_PRIVATE_API 6.6.1
 _ZN16Bars3DController18setBarSeriesMarginERK6QSizeF@Qt_6_PRIVATE_API 6.6.1
 _ZN16Bars3DController19synchDataToRendererEv@Qt_6_PRIVATE_API 6.6.1
 _ZN16Bars3DController20primarySeriesChangedEP12QBar3DSeries@Qt_6_PRIVATE_API 6.6.1
 _ZN16Bars3DController21selectedSeriesChangedEP12QBar3DSeries@Qt_6_PRIVATE_API 6.6.1
 _ZN16Bars3DController21setMultiSeriesScalingEb@Qt_6_PRIVATE_API 6.6.1
 _ZN16Bars3DController22handleRowColorsChangedEv@Qt_6_PRIVATE_API 6.6.1
 _ZN16Bars3DController23adjustSelectionPositionER6QPointPK12QBar3DSeries@Qt_6_PRIVATE_API 6.6.1
 _ZN16Bars3DController24invalidSelectionPositionEv@Qt_6_PRIVATE_API 6.6.1
 _ZN16Bars3DController26handleDataRowLabelsChangedEv@Qt_6_PRIVATE_API 6.6.1
 _ZN16Bars3DController29handleDataColumnLabelsChangedEv@Qt_6_PRIVATE_API 6.6.1
 _ZN16Bars3DController30handleAxisRangeChangedBySenderEP7QObject@Qt_6_PRIVATE_API 6.6.1
 _ZN16Bars3DController37handleSeriesVisibilityChangedBySenderEP7QObject@Qt_6_PRIVATE_API 6.6.1
 _ZN16Bars3DController45handleAxisAutoAdjustRangeChangedInOrientationEN15QAbstract3DAxis15AxisOrientationEb@Qt_6_PRIVATE_API 6.6.1
 _ZN16Bars3DController8setAxisXEP15QAbstract3DAxis@Qt_6_PRIVATE_API 6.6.1
 _ZN16Bars3DController8setAxisZEP15QAbstract3DAxis@Qt_6_PRIVATE_API 6.6.1
 _ZN16Bars3DController9addSeriesEP17QAbstract3DSeries@Qt_6_PRIVATE_API 6.6.1
 _ZN16Bars3DControllerC1E5QRectP8Q3DScene@Qt_6_PRIVATE_API 6.6.1
 _ZN16Bars3DControllerC2E5QRectP8Q3DScene@Qt_6_PRIVATE_API 6.6.1
 _ZN16Bars3DControllerD0Ev@Qt_6_PRIVATE_API 6.6.1
 _ZN16Bars3DControllerD1Ev@Qt_6_PRIVATE_API 6.6.1
 _ZN16Bars3DControllerD2Ev@Qt_6_PRIVATE_API 6.6.1
 _ZN16QAbstract3DGraph10touchEventEP11QTouchEvent@Qt_6 6.6.1
 _ZN16QAbstract3DGraph10wheelEventEP11QWheelEvent@Qt_6 6.6.1
 _ZN16QAbstract3DGraph11exposeEventEP12QExposeEvent@Qt_6 6.6.1
 _ZN16QAbstract3DGraph11qt_metacallEN11QMetaObject4CallEiPPv@Qt_6 6.6.1
 _ZN16QAbstract3DGraph11qt_metacastEPKc@Qt_6 6.6.1
 _ZN16QAbstract3DGraph11resizeEventEP12QResizeEvent@Qt_6 6.6.1
 _ZN16QAbstract3DGraph12polarChangedEb@Qt_6 6.6.1
 _ZN16QAbstract3DGraph12releaseThemeEP8Q3DTheme@Qt_6 6.6.1
 _ZN16QAbstract3DGraph13addCustomItemEP13QCustom3DItem@Qt_6 6.6.1
 _ZN16QAbstract3DGraph13localeChangedERK7QLocale@Qt_6 6.6.1
 _ZN16QAbstract3DGraph13marginChangedEd@Qt_6 6.6.1
 _ZN16QAbstract3DGraph13renderToImageEiRK5QSize@Qt_6 6.6.1
 _ZN16QAbstract3DGraph13setMeasureFpsEb@Qt_6 6.6.1
 _ZN16QAbstract3DGraph13setReflectionEb@Qt_6 6.6.1
 _ZN16QAbstract3DGraph14clearSelectionEv@Qt_6 6.6.1
 _ZN16QAbstract3DGraph14mouseMoveEventEP11QMouseEvent@Qt_6 6.6.1
 _ZN16QAbstract3DGraph14setActiveThemeEP8Q3DTheme@Qt_6 6.6.1
 _ZN16QAbstract3DGraph14setAspectRatioEd@Qt_6 6.6.1
 _ZN16QAbstract3DGraph15addInputHandlerEP23QAbstract3DInputHandler@Qt_6 6.6.1
 _ZN16QAbstract3DGraph15mousePressEventEP11QMouseEvent@Qt_6 6.6.1
 _ZN16QAbstract3DGraph15setReflectivityEd@Qt_6 6.6.1
 _ZN16QAbstract3DGraph16removeCustomItemEP13QCustom3DItem@Qt_6 6.6.1
 _ZN16QAbstract3DGraph16setSelectionModeE6QFlagsINS_13SelectionFlagEE@Qt_6 6.6.1
 _ZN16QAbstract3DGraph16setShadowQualityENS_13ShadowQualityE@Qt_6 6.6.1
 _ZN16QAbstract3DGraph16staticMetaObjectE@Qt_6 6.6.1
 _ZN16QAbstract3DGraph17currentFpsChangedEd@Qt_6 6.6.1
 _ZN16QAbstract3DGraph17measureFpsChangedEb@Qt_6 6.6.1
 _ZN16QAbstract3DGraph17mouseReleaseEventEP11QMouseEvent@Qt_6 6.6.1
 _ZN16QAbstract3DGraph17reflectionChangedEb@Qt_6 6.6.1
 _ZN16QAbstract3DGraph17releaseCustomItemEP13QCustom3DItem@Qt_6 6.6.1
 _ZN16QAbstract3DGraph17removeCustomItemsEv@Qt_6 6.6.1
 _ZN16QAbstract3DGraph18activeThemeChangedEP8Q3DTheme@Qt_6 6.6.1
 _ZN16QAbstract3DGraph18aspectRatioChangedEd@Qt_6 6.6.1
 _ZN16QAbstract3DGraph18removeCustomItemAtERK9QVector3D@Qt_6 6.6.1
 _ZN16QAbstract3DGraph18setOrthoProjectionEb@Qt_6 6.6.1
 _ZN16QAbstract3DGraph19reflectivityChangedEd@Qt_6 6.6.1
 _ZN16QAbstract3DGraph19releaseInputHandlerEP23QAbstract3DInputHandler@Qt_6 6.6.1
 _ZN16QAbstract3DGraph20selectionModeChangedE6QFlagsINS_13SelectionFlagEE@Qt_6 6.6.1
 _ZN16QAbstract3DGraph20setOptimizationHintsE6QFlagsINS_16OptimizationHintEE@Qt_6 6.6.1
 _ZN16QAbstract3DGraph20setRadialLabelOffsetEf@Qt_6 6.6.1
 _ZN16QAbstract3DGraph20shadowQualityChangedENS_13ShadowQualityE@Qt_6 6.6.1
 _ZN16QAbstract3DGraph21mouseDoubleClickEventEP11QMouseEvent@Qt_6 6.6.1
 _ZN16QAbstract3DGraph21setActiveInputHandlerEP23QAbstract3DInputHandler@Qt_6 6.6.1
 _ZN16QAbstract3DGraph22orthoProjectionChangedEb@Qt_6 6.6.1
 _ZN16QAbstract3DGraph22selectedElementChangedENS_11ElementTypeE@Qt_6 6.6.1
 _ZN16QAbstract3DGraph24optimizationHintsChangedE6QFlagsINS_16OptimizationHintEE@Qt_6 6.6.1
 _ZN16QAbstract3DGraph24radialLabelOffsetChangedEf@Qt_6 6.6.1
 _ZN16QAbstract3DGraph24setHorizontalAspectRatioEd@Qt_6 6.6.1
 _ZN16QAbstract3DGraph25activeInputHandlerChangedEP23QAbstract3DInputHandler@Qt_6 6.6.1
 _ZN16QAbstract3DGraph27queriedGraphPositionChangedERK9QVector3D@Qt_6 6.6.1
 _ZN16QAbstract3DGraph28horizontalAspectRatioChangedEd@Qt_6 6.6.1
 _ZN16QAbstract3DGraph5eventEP6QEvent@Qt_6 6.6.1
 _ZN16QAbstract3DGraph8addThemeEP8Q3DTheme@Qt_6 6.6.1
 _ZN16QAbstract3DGraph8setPolarEb@Qt_6 6.6.1
 _ZN16QAbstract3DGraph9setLocaleERK7QLocale@Qt_6 6.6.1
 _ZN16QAbstract3DGraph9setMarginEd@Qt_6 6.6.1
 _ZN16QAbstract3DGraphC1EP23QAbstract3DGraphPrivatePK14QSurfaceFormatP7QWindow@Qt_6_PRIVATE_API 6.6.1
 _ZN16QAbstract3DGraphC2EP23QAbstract3DGraphPrivatePK14QSurfaceFormatP7QWindow@Qt_6_PRIVATE_API 6.6.1
 _ZN16QAbstract3DGraphD0Ev@Qt_6 6.6.1
 _ZN16QAbstract3DGraphD1Ev@Qt_6 6.6.1
 _ZN16QAbstract3DGraphD2Ev@Qt_6 6.6.1
 _ZN16QScatter3DSeries11qt_metacallEN11QMetaObject4CallEiPPv@Qt_6 6.6.1
 _ZN16QScatter3DSeries11qt_metacastEPKc@Qt_6 6.6.1
 _ZN16QScatter3DSeries11setItemSizeEf@Qt_6 6.6.1
 _ZN16QScatter3DSeries12setDataProxyEP17QScatterDataProxy@Qt_6 6.6.1
 _ZN16QScatter3DSeries15itemSizeChangedEf@Qt_6 6.6.1
 _ZN16QScatter3DSeries15setSelectedItemEi@Qt_6 6.6.1
 _ZN16QScatter3DSeries16dataProxyChangedEP17QScatterDataProxy@Qt_6 6.6.1
 _ZN16QScatter3DSeries16staticMetaObjectE@Qt_6 6.6.1
 _ZN16QScatter3DSeries19selectedItemChangedEi@Qt_6 6.6.1
 _ZN16QScatter3DSeries21invalidSelectionIndexEv@Qt_6 6.6.1
 _ZN16QScatter3DSeries4dptrEv@Qt_6 6.6.1
 _ZN16QScatter3DSeriesC1EP17QScatterDataProxyP7QObject@Qt_6 6.6.1
 _ZN16QScatter3DSeriesC1EP23QScatter3DSeriesPrivateP7QObject@Qt_6_PRIVATE_API 6.6.1
 _ZN16QScatter3DSeriesC1EP7QObject@Qt_6 6.6.1
 _ZN16QScatter3DSeriesC2EP17QScatterDataProxyP7QObject@Qt_6 6.6.1
 _ZN16QScatter3DSeriesC2EP23QScatter3DSeriesPrivateP7QObject@Qt_6_PRIVATE_API 6.6.1
 _ZN16QScatter3DSeriesC2EP7QObject@Qt_6 6.6.1
 _ZN16QScatter3DSeriesD0Ev@Qt_6 6.6.1
 _ZN16QScatter3DSeriesD1Ev@Qt_6 6.6.1
 _ZN16QScatter3DSeriesD2Ev@Qt_6 6.6.1
 _ZN16QScatterDataItem15createExtraDataEv@Qt_6 6.6.1
 _ZN16QScatterDataItemC1ERK9QVector3D@Qt_6 6.6.1
 _ZN16QScatterDataItemC1ERK9QVector3DRK11QQuaternion@Qt_6 6.6.1
 _ZN16QScatterDataItemC1ERKS_@Qt_6 6.6.1
 _ZN16QScatterDataItemC1Ev@Qt_6 6.6.1
 _ZN16QScatterDataItemC2ERK9QVector3D@Qt_6 6.6.1
 _ZN16QScatterDataItemC2ERK9QVector3DRK11QQuaternion@Qt_6 6.6.1
 _ZN16QScatterDataItemC2ERKS_@Qt_6 6.6.1
 _ZN16QScatterDataItemC2Ev@Qt_6 6.6.1
 _ZN16QScatterDataItemD1Ev@Qt_6 6.6.1
 _ZN16QScatterDataItemD2Ev@Qt_6 6.6.1
 _ZN16QScatterDataItemaSERKS_@Qt_6 6.6.1
 _ZN16QSurface3DSeries10setTextureERK6QImage@Qt_6 6.6.1
 _ZN16QSurface3DSeries11qt_metacallEN11QMetaObject4CallEiPPv@Qt_6 6.6.1
 _ZN16QSurface3DSeries11qt_metacastEPKc@Qt_6 6.6.1
 _ZN16QSurface3DSeries11setDrawModeE6QFlagsINS_8DrawFlagEE@Qt_6 6.6.1
 _ZN16QSurface3DSeries12setDataProxyEP17QSurfaceDataProxy@Qt_6 6.6.1
 _ZN16QSurface3DSeries14setTextureFileERK7QString@Qt_6 6.6.1
 _ZN16QSurface3DSeries14textureChangedERK6QImage@Qt_6 6.6.1
 _ZN16QSurface3DSeries15drawModeChangedE6QFlagsINS_8DrawFlagEE@Qt_6 6.6.1
 _ZN16QSurface3DSeries16dataProxyChangedEP17QSurfaceDataProxy@Qt_6 6.6.1
 _ZN16QSurface3DSeries16setSelectedPointERK6QPoint@Qt_6 6.6.1
 _ZN16QSurface3DSeries16staticMetaObjectE@Qt_6 6.6.1
 _ZN16QSurface3DSeries17setWireframeColorERK6QColor@Qt_6 6.6.1
 _ZN16QSurface3DSeries18textureFileChangedERK7QString@Qt_6 6.6.1
 _ZN16QSurface3DSeries20selectedPointChangedERK6QPoint@Qt_6 6.6.1
 _ZN16QSurface3DSeries21setFlatShadingEnabledEb@Qt_6 6.6.1
 _ZN16QSurface3DSeries21wireframeColorChangedERK6QColor@Qt_6 6.6.1
 _ZN16QSurface3DSeries24invalidSelectionPositionEv@Qt_6 6.6.1
 _ZN16QSurface3DSeries25flatShadingEnabledChangedEb@Qt_6 6.6.1
 _ZN16QSurface3DSeries27flatShadingSupportedChangedEb@Qt_6 6.6.1
 _ZN16QSurface3DSeries4dptrEv@Qt_6 6.6.1
 _ZN16QSurface3DSeriesC1EP17QSurfaceDataProxyP7QObject@Qt_6 6.6.1
 _ZN16QSurface3DSeriesC1EP23QSurface3DSeriesPrivateP7QObject@Qt_6_PRIVATE_API 6.6.1
 _ZN16QSurface3DSeriesC1EP7QObject@Qt_6 6.6.1
 _ZN16QSurface3DSeriesC2EP17QSurfaceDataProxyP7QObject@Qt_6 6.6.1
 _ZN16QSurface3DSeriesC2EP23QSurface3DSeriesPrivateP7QObject@Qt_6_PRIVATE_API 6.6.1
 _ZN16QSurface3DSeriesC2EP7QObject@Qt_6 6.6.1
 _ZN16QSurface3DSeriesD0Ev@Qt_6 6.6.1
 _ZN16QSurface3DSeriesD1Ev@Qt_6 6.6.1
 _ZN16QSurface3DSeriesD2Ev@Qt_6 6.6.1
 _ZN16QSurfaceDataItem15createExtraDataEv@Qt_6 6.6.1
 _ZN16QSurfaceDataItemC1ERK9QVector3D@Qt_6 6.6.1
 _ZN16QSurfaceDataItemC1ERKS_@Qt_6 6.6.1
 _ZN16QSurfaceDataItemC1Ev@Qt_6 6.6.1
 _ZN16QSurfaceDataItemC2ERK9QVector3D@Qt_6 6.6.1
 _ZN16QSurfaceDataItemC2ERKS_@Qt_6 6.6.1
 _ZN16QSurfaceDataItemC2Ev@Qt_6 6.6.1
 _ZN16QSurfaceDataItemD1Ev@Qt_6 6.6.1
 _ZN16QSurfaceDataItemD2Ev@Qt_6 6.6.1
 _ZN16QSurfaceDataItemaSERKS_@Qt_6 6.6.1
 _ZN17QAbstract3DSeries10setVisibleEb@Qt_6 6.6.1
 _ZN17QAbstract3DSeries11meshChangedENS_4MeshE@Qt_6 6.6.1
 _ZN17QAbstract3DSeries11nameChangedERK7QString@Qt_6 6.6.1
 _ZN17QAbstract3DSeries11qt_metacallEN11QMetaObject4CallEiPPv@Qt_6 6.6.1
 _ZN17QAbstract3DSeries11qt_metacastEPKc@Qt_6 6.6.1
 _ZN17QAbstract3DSeries12setBaseColorERK6QColor@Qt_6 6.6.1
 _ZN17QAbstract3DSeries13setColorStyleEN8Q3DTheme10ColorStyleE@Qt_6 6.6.1
 _ZN17QAbstract3DSeries13setMeshSmoothEb@Qt_6 6.6.1
 _ZN17QAbstract3DSeries15setBaseGradientERK15QLinearGradient@Qt_6 6.6.1
 _ZN17QAbstract3DSeries15setMeshRotationERK11QQuaternion@Qt_6 6.6.1
 _ZN17QAbstract3DSeries16baseColorChangedERK6QColor@Qt_6 6.6.1
 _ZN17QAbstract3DSeries16itemLabelChangedERK7QString@Qt_6 6.6.1
 _ZN17QAbstract3DSeries16staticMetaObjectE@Qt_6 6.6.1
 _ZN17QAbstract3DSeries17colorStyleChangedEN8Q3DTheme10ColorStyleE@Qt_6 6.6.1
 _ZN17QAbstract3DSeries17meshSmoothChangedEb@Qt_6 6.6.1
 _ZN17QAbstract3DSeries17visibilityChangedEb@Qt_6 6.6.1
 _ZN17QAbstract3DSeries18setItemLabelFormatERK7QString@Qt_6 6.6.1
 _ZN17QAbstract3DSeries18setUserDefinedMeshERK7QString@Qt_6 6.6.1
 _ZN17QAbstract3DSeries19baseGradientChangedERK15QLinearGradient@Qt_6 6.6.1
 _ZN17QAbstract3DSeries19meshRotationChangedERK11QQuaternion@Qt_6 6.6.1
 _ZN17QAbstract3DSeries19setItemLabelVisibleEb@Qt_6 6.6.1
 _ZN17QAbstract3DSeries19setMeshAxisAndAngleERK9QVector3Df@Qt_6 6.6.1
 _ZN17QAbstract3DSeries22itemLabelFormatChangedERK7QString@Qt_6 6.6.1
 _ZN17QAbstract3DSeries22setMultiHighlightColorERK6QColor@Qt_6 6.6.1
 _ZN17QAbstract3DSeries22userDefinedMeshChangedERK7QString@Qt_6 6.6.1
 _ZN17QAbstract3DSeries23setSingleHighlightColorERK6QColor@Qt_6 6.6.1
 _ZN17QAbstract3DSeries25setMultiHighlightGradientERK15QLinearGradient@Qt_6 6.6.1
 _ZN17QAbstract3DSeries26itemLabelVisibilityChangedEb@Qt_6 6.6.1
 _ZN17QAbstract3DSeries26multiHighlightColorChangedERK6QColor@Qt_6 6.6.1
 _ZN17QAbstract3DSeries26setSingleHighlightGradientERK15QLinearGradient@Qt_6 6.6.1
 _ZN17QAbstract3DSeries27singleHighlightColorChangedERK6QColor@Qt_6 6.6.1
 _ZN17QAbstract3DSeries29multiHighlightGradientChangedERK15QLinearGradient@Qt_6 6.6.1
 _ZN17QAbstract3DSeries30singleHighlightGradientChangedERK15QLinearGradient@Qt_6 6.6.1
 _ZN17QAbstract3DSeries7setMeshENS_4MeshE@Qt_6 6.6.1
 _ZN17QAbstract3DSeries7setNameERK7QString@Qt_6 6.6.1
 _ZN17QAbstract3DSeriesC1EP24QAbstract3DSeriesPrivateP7QObject@Qt_6_PRIVATE_API 6.6.1
 _ZN17QAbstract3DSeriesC2EP24QAbstract3DSeriesPrivateP7QObject@Qt_6_PRIVATE_API 6.6.1
 _ZN17QAbstract3DSeriesD0Ev@Qt_6 6.6.1
 _ZN17QAbstract3DSeriesD1Ev@Qt_6 6.6.1
 _ZN17QAbstract3DSeriesD2Ev@Qt_6 6.6.1
 _ZN17QScatterDataProxy10arrayResetEv@Qt_6 6.6.1
 _ZN17QScatterDataProxy10insertItemEiRK16QScatterDataItem@Qt_6 6.6.1
 _ZN17QScatterDataProxy10itemsAddedEii@Qt_6 6.6.1
 _ZN17QScatterDataProxy10resetArrayEP5QListI16QScatterDataItemE@Qt_6 6.6.1
 _ZN17QScatterDataProxy11insertItemsEiRK5QListI16QScatterDataItemE@Qt_6 6.6.1
 _ZN17QScatterDataProxy11qt_metacallEN11QMetaObject4CallEiPPv@Qt_6 6.6.1
 _ZN17QScatterDataProxy11qt_metacastEPKc@Qt_6 6.6.1
 _ZN17QScatterDataProxy11removeItemsEii@Qt_6 6.6.1
 _ZN17QScatterDataProxy12itemsChangedEii@Qt_6 6.6.1
 _ZN17QScatterDataProxy12itemsRemovedEii@Qt_6 6.6.1
 _ZN17QScatterDataProxy13itemsInsertedEii@Qt_6 6.6.1
 _ZN17QScatterDataProxy13seriesChangedEP16QScatter3DSeries@Qt_6 6.6.1
 _ZN17QScatterDataProxy16itemCountChangedEi@Qt_6 6.6.1
 _ZN17QScatterDataProxy16staticMetaObjectE@Qt_6 6.6.1
 _ZN17QScatterDataProxy4dptrEv@Qt_6 6.6.1
 _ZN17QScatterDataProxy7addItemERK16QScatterDataItem@Qt_6 6.6.1
 _ZN17QScatterDataProxy7setItemEiRK16QScatterDataItem@Qt_6 6.6.1
 _ZN17QScatterDataProxy8addItemsERK5QListI16QScatterDataItemE@Qt_6 6.6.1
 _ZN17QScatterDataProxy8setItemsEiRK5QListI16QScatterDataItemE@Qt_6 6.6.1
 _ZN17QScatterDataProxyC1EP24QScatterDataProxyPrivateP7QObject@Qt_6_PRIVATE_API 6.6.1
 _ZN17QScatterDataProxyC1EP7QObject@Qt_6 6.6.1
 _ZN17QScatterDataProxyC2EP24QScatterDataProxyPrivateP7QObject@Qt_6_PRIVATE_API 6.6.1
 _ZN17QScatterDataProxyC2EP7QObject@Qt_6 6.6.1
 _ZN17QScatterDataProxyD0Ev@Qt_6 6.6.1
 _ZN17QScatterDataProxyD1Ev@Qt_6 6.6.1
 _ZN17QScatterDataProxyD2Ev@Qt_6 6.6.1
 _ZN17QSurfaceDataProxy10arrayResetEv@Qt_6 6.6.1
 _ZN17QSurfaceDataProxy10insertRowsEiRK5QListIPS0_I16QSurfaceDataItemEE@Qt_6 6.6.1
 _ZN17QSurfaceDataProxy10removeRowsEii@Qt_6 6.6.1
 _ZN17QSurfaceDataProxy10resetArrayEP5QListIPS0_I16QSurfaceDataItemEE@Qt_6 6.6.1
 _ZN17QSurfaceDataProxy11itemChangedEii@Qt_6 6.6.1
 _ZN17QSurfaceDataProxy11qt_metacallEN11QMetaObject4CallEiPPv@Qt_6 6.6.1
 _ZN17QSurfaceDataProxy11qt_metacastEPKc@Qt_6 6.6.1
 _ZN17QSurfaceDataProxy11rowsChangedEii@Qt_6 6.6.1
 _ZN17QSurfaceDataProxy11rowsRemovedEii@Qt_6 6.6.1
 _ZN17QSurfaceDataProxy12rowsInsertedEii@Qt_6 6.6.1
 _ZN17QSurfaceDataProxy13seriesChangedEP16QSurface3DSeries@Qt_6 6.6.1
 _ZN17QSurfaceDataProxy15rowCountChangedEi@Qt_6 6.6.1
 _ZN17QSurfaceDataProxy16staticMetaObjectE@Qt_6 6.6.1
 _ZN17QSurfaceDataProxy18columnCountChangedEi@Qt_6 6.6.1
 _ZN17QSurfaceDataProxy4dptrEv@Qt_6 6.6.1
 _ZN17QSurfaceDataProxy6addRowEP5QListI16QSurfaceDataItemE@Qt_6 6.6.1
 _ZN17QSurfaceDataProxy6setRowEiP5QListI16QSurfaceDataItemE@Qt_6 6.6.1
 _ZN17QSurfaceDataProxy7addRowsERK5QListIPS0_I16QSurfaceDataItemEE@Qt_6 6.6.1
 _ZN17QSurfaceDataProxy7setItemERK6QPointRK16QSurfaceDataItem@Qt_6 6.6.1
 _ZN17QSurfaceDataProxy7setItemEiiRK16QSurfaceDataItem@Qt_6 6.6.1
 _ZN17QSurfaceDataProxy7setRowsEiRK5QListIPS0_I16QSurfaceDataItemEE@Qt_6 6.6.1
 _ZN17QSurfaceDataProxy9insertRowEiP5QListI16QSurfaceDataItemE@Qt_6 6.6.1
 _ZN17QSurfaceDataProxy9rowsAddedEii@Qt_6 6.6.1
 _ZN17QSurfaceDataProxyC1EP24QSurfaceDataProxyPrivateP7QObject@Qt_6_PRIVATE_API 6.6.1
 _ZN17QSurfaceDataProxyC1EP7QObject@Qt_6 6.6.1
 _ZN17QSurfaceDataProxyC2EP24QSurfaceDataProxyPrivateP7QObject@Qt_6_PRIVATE_API 6.6.1
 _ZN17QSurfaceDataProxyC2EP7QObject@Qt_6 6.6.1
 _ZN17QSurfaceDataProxyD0Ev@Qt_6 6.6.1
 _ZN17QSurfaceDataProxyD1Ev@Qt_6 6.6.1
 _ZN17QSurfaceDataProxyD2Ev@Qt_6 6.6.1
 _ZN17Scatter3DRenderer10drawLabelsEbPK9Q3DCameraRK10QMatrix4x4S5_@Qt_6_PRIVATE_API 6.6.1
 _ZN17Scatter3DRenderer10updateDataEv@Qt_6_PRIVATE_API 6.6.1
 _ZN17Scatter3DRenderer11initShadersERK7QStringS2_@Qt_6_PRIVATE_API 6.6.1
 _ZN17Scatter3DRenderer11qt_metacallEN11QMetaObject4CallEiPPv@Qt_6_PRIVATE_API 6.6.1
 _ZN17Scatter3DRenderer11qt_metacastEPKc@Qt_6_PRIVATE_API 6.6.1
 _ZN17Scatter3DRenderer11updateItemsERK5QListIN19Scatter3DController10ChangeItemEE@Qt_6_PRIVATE_API 6.6.1
 _ZN17Scatter3DRenderer11updateSceneEP8Q3DScene@Qt_6_PRIVATE_API 6.6.1
 _ZN17Scatter3DRenderer12updateMarginEf@Qt_6_PRIVATE_API 6.6.1
 _ZN17Scatter3DRenderer12updateSeriesERK5QListIP17QAbstract3DSeriesE@Qt_6_PRIVATE_API 6.6.1
 _ZN17Scatter3DRenderer14contextCleanupEv@Qt_6_PRIVATE_API 6.6.1
 _ZN17Scatter3DRenderer14createNewCacheEP17QAbstract3DSeries@Qt_6_PRIVATE_API 6.6.1
 _ZN17Scatter3DRenderer14updateTexturesEv@Qt_6_PRIVATE_API 6.6.1
 _ZN17Scatter3DRenderer15fixCameraTargetER9QVector3D@Qt_6_PRIVATE_API 6.6.1
 _ZN17Scatter3DRenderer15fixMeshFileNameER7QStringN17QAbstract3DSeries4MeshE@Qt_6_PRIVATE_API 6.6.1
 _ZN17Scatter3DRenderer15initDepthShaderEv@Qt_6_PRIVATE_API 6.6.1
 _ZN17Scatter3DRenderer15initPointShaderEv@Qt_6_PRIVATE_API 6.6.1
 _ZN17Scatter3DRenderer16initializeOpenGLEv@Qt_6_PRIVATE_API 6.6.1
 _ZN17Scatter3DRenderer16staticMetaObjectE@Qt_6_PRIVATE_API 6.6.1
 _ZN17Scatter3DRenderer16updateAxisLabelsEN15QAbstract3DAxis15AxisOrientationERK5QListI7QStringE@Qt_6_PRIVATE_API 6.6.1
 _ZN17Scatter3DRenderer17updateDepthBufferEv@Qt_6_PRIVATE_API 6.6.1
 _ZN17Scatter3DRenderer18loadBackgroundMeshEv@Qt_6_PRIVATE_API 6.6.1
 _ZN17Scatter3DRenderer18resetClickedStatusEv@Qt_6_PRIVATE_API 6.6.1
 _ZN17Scatter3DRenderer18updateSelectedItemEiP16QScatter3DSeries@Qt_6_PRIVATE_API 6.6.1
 _ZN17Scatter3DRenderer19initGradientShadersERK7QStringS2_@Qt_6_PRIVATE_API 6.6.1
 _ZN17Scatter3DRenderer19initSelectionBufferEv@Qt_6_PRIVATE_API 6.6.1
 _ZN17Scatter3DRenderer19initSelectionShaderEv@Qt_6_PRIVATE_API 6.6.1
 _ZN17Scatter3DRenderer19updateShadowQualityEN16QAbstract3DGraph13ShadowQualityE@Qt_6_PRIVATE_API 6.6.1
 _ZN17Scatter3DRenderer20calculateTranslationER17ScatterRenderItem@Qt_6_PRIVATE_API 6.6.1
 _ZN17Scatter3DRenderer20getVisibleItemBoundsER9QVector3DS1_@Qt_6_PRIVATE_API 6.6.1
 _ZN17Scatter3DRenderer21initBackgroundShadersERK7QStringS2_@Qt_6_PRIVATE_API 6.6.1
 _ZN17Scatter3DRenderer22initStaticPointShadersERK7QStringS2_@Qt_6_PRIVATE_API 6.6.1
 _ZN17Scatter3DRenderer22updateOptimizationHintE6QFlagsIN16QAbstract3DGraph16OptimizationHintEE@Qt_6_PRIVATE_API 6.6.1
 _ZN17Scatter3DRenderer25updateAxisTitleVisibilityEN15QAbstract3DAxis15AxisOrientationEb@Qt_6_PRIVATE_API 6.6.1
 _ZN17Scatter3DRenderer28calculateSceneScalingFactorsEv@Qt_6_PRIVATE_API 6.6.1
 _ZN17Scatter3DRenderer28convertPositionToTranslationERK9QVector3Db@Qt_6_PRIVATE_API 6.6.1
 _ZN17Scatter3DRenderer29initStaticSelectedItemShadersERK7QStringS2_S2_S2_@Qt_6_PRIVATE_API 6.6.1
 _ZN17Scatter3DRenderer30selectionColorToSeriesAndIndexERK9QVector4DRiRP17QAbstract3DSeries@Qt_6_PRIVATE_API 6.6.1
 _ZN17Scatter3DRenderer6renderEj@Qt_6_PRIVATE_API 6.6.1
 _ZN17Scatter3DRenderer9drawSceneEj@Qt_6_PRIVATE_API 6.6.1
 _ZN17Scatter3DRendererC1EP19Scatter3DController@Qt_6_PRIVATE_API 6.6.1
 _ZN17Scatter3DRendererC2EP19Scatter3DController@Qt_6_PRIVATE_API 6.6.1
 _ZN17Scatter3DRendererD0Ev@Qt_6_PRIVATE_API 6.6.1
 _ZN17Scatter3DRendererD1Ev@Qt_6_PRIVATE_API 6.6.1
 _ZN17Scatter3DRendererD2Ev@Qt_6_PRIVATE_API 6.6.1
 _ZN17Surface3DRenderer10cleanCacheEP17SeriesRenderCache@Qt_6_PRIVATE_API 6.6.1
 _ZN17Surface3DRenderer10drawLabelsEbPK9Q3DCameraRK10QMatrix4x4S5_@Qt_6_PRIVATE_API 6.6.1
 _ZN17Surface3DRenderer10updateDataEv@Qt_6_PRIVATE_API 6.6.1
 _ZN17Surface3DRenderer10updateRowsERK5QListIN19Surface3DController9ChangeRowEE@Qt_6_PRIVATE_API 6.6.1
 _ZN17Surface3DRenderer11initShadersERK7QStringS2_@Qt_6_PRIVATE_API 6.6.1
 _ZN17Surface3DRenderer11qt_metacallEN11QMetaObject4CallEiPPv@Qt_6_PRIVATE_API 6.6.1
 _ZN17Surface3DRenderer11qt_metacastEPKc@Qt_6_PRIVATE_API 6.6.1
 _ZN17Surface3DRenderer11updateItemsERK5QListIN19Surface3DController10ChangeItemEE@Qt_6_PRIVATE_API 6.6.1
 _ZN17Surface3DRenderer11updateSceneEP8Q3DScene@Qt_6_PRIVATE_API 6.6.1
 _ZN17Surface3DRenderer12fillIdCornerEPhhhhh@Qt_6_PRIVATE_API 6.6.1
 _ZN17Surface3DRenderer12updateMarginEf@Qt_6_PRIVATE_API 6.6.1
 _ZN17Surface3DRenderer12updateSeriesERK5QListIP17QAbstract3DSeriesE@Qt_6_PRIVATE_API 6.6.1
 _ZN17Surface3DRenderer13updateObjectsEP24SurfaceSeriesRenderCacheb@Qt_6_PRIVATE_API 6.6.1
 _ZN17Surface3DRenderer14contextCleanupEv@Qt_6_PRIVATE_API 6.6.1
 _ZN17Surface3DRenderer14createNewCacheEP17QAbstract3DSeries@Qt_6_PRIVATE_API 6.6.1
 _ZN17Surface3DRenderer14updateTexturesEv@Qt_6_PRIVATE_API 6.6.1
 _ZN17Surface3DRenderer15drawSlicedSceneEv@Qt_6_PRIVATE_API 6.6.1
 _ZN17Surface3DRenderer15findMatchingRowEfRiiR5QListIPS1_I16QSurfaceDataItemEE@Qt_6_PRIVATE_API 6.6.1
 _ZN17Surface3DRenderer15fixCameraTargetER9QVector3D@Qt_6_PRIVATE_API 6.6.1
 _ZN17Surface3DRenderer15initDepthShaderEv@Qt_6_PRIVATE_API 6.6.1
 _ZN17Surface3DRenderer16checkFlatSupportEP24SurfaceSeriesRenderCache@Qt_6_PRIVATE_API 6.6.1
 _ZN17Surface3DRenderer16initializeOpenGLEv@Qt_6_PRIVATE_API 6.6.1
 _ZN17Surface3DRenderer16staticMetaObjectE@Qt_6_PRIVATE_API 6.6.1
 _ZN17Surface3DRenderer16updateAxisLabelsEN15QAbstract3DAxis15AxisOrientationERK5QListI7QStringE@Qt_6_PRIVATE_API 6.6.1
 _ZN17Surface3DRenderer17updateDepthBufferEv@Qt_6_PRIVATE_API 6.6.1
 _ZN17Surface3DRenderer17updateSliceObjectEP24SurfaceSeriesRenderCacheRK6QPoint@Qt_6_PRIVATE_API 6.6.1
 _ZN17Surface3DRenderer18findMatchingColumnEfRiiR5QListIPS1_I16QSurfaceDataItemEE@Qt_6_PRIVATE_API 6.6.1
 _ZN17Surface3DRenderer18initSurfaceShadersEv@Qt_6_PRIVATE_API 6.6.1
 _ZN17Surface3DRenderer18loadBackgroundMeshEv@Qt_6_PRIVATE_API 6.6.1
 _ZN17Surface3DRenderer18resetClickedStatusEv@Qt_6_PRIVATE_API 6.6.1
 _ZN17Surface3DRenderer19calculateSampleRectERK5QListIPS0_I16QSurfaceDataItemEE@Qt_6_PRIVATE_API 6.6.1
 _ZN17Surface3DRenderer19initSelectionBufferEv@Qt_6_PRIVATE_API 6.6.1
 _ZN17Surface3DRenderer19updateSelectedPointERK6QPointP16QSurface3DSeries@Qt_6_PRIVATE_API 6.6.1
 _ZN17Surface3DRenderer19updateSelectionModeE6QFlagsIN16QAbstract3DGraph13SelectionFlagEE@Qt_6_PRIVATE_API 6.6.1
 _ZN17Surface3DRenderer19updateShadowQualityEN16QAbstract3DGraph13ShadowQualityE@Qt_6_PRIVATE_API 6.6.1
 _ZN17Surface3DRenderer19updateSlicingActiveEb@Qt_6_PRIVATE_API 6.6.1
 _ZN17Surface3DRenderer20getVisibleItemBoundsER9QVector3DS1_@Qt_6_PRIVATE_API 6.6.1
 _ZN17Surface3DRenderer20initSelectionShadersEv@Qt_6_PRIVATE_API 6.6.1
 _ZN17Surface3DRenderer20surfacePointSelectedERK6QPoint@Qt_6_PRIVATE_API 6.6.1
 _ZN17Surface3DRenderer20updateSelectionPointEP24SurfaceSeriesRenderCacheRK6QPointb@Qt_6_PRIVATE_API 6.6.1
 _ZN17Surface3DRenderer20updateSliceDataModelERK6QPoint@Qt_6_PRIVATE_API 6.6.1
 _ZN17Surface3DRenderer21initBackgroundShadersERK7QStringS2_@Qt_6_PRIVATE_API 6.6.1
 _ZN17Surface3DRenderer21updateSurfaceTexturesE5QListIP16QSurface3DSeriesE@Qt_6_PRIVATE_API 6.6.1
 _ZN17Surface3DRenderer22createSelectionTextureEP24SurfaceSeriesRenderCacheRj@Qt_6_PRIVATE_API 6.6.1
 _ZN17Surface3DRenderer22mapCoordsToSampleSpaceEP24SurfaceSeriesRenderCacheRK7QPointF@Qt_6_PRIVATE_API 6.6.1
 _ZN17Surface3DRenderer23updateSelectionTexturesEv@Qt_6_PRIVATE_API 6.6.1
 _ZN17Surface3DRenderer24updateFlipHorizontalGridEb@Qt_6_PRIVATE_API 6.6.1
 _ZN17Surface3DRenderer25selectionIdToSurfacePointEj@Qt_6_PRIVATE_API 6.6.1
 _ZN17Surface3DRenderer25updateAxisTitleVisibilityEN15QAbstract3DAxis15AxisOrientationEb@Qt_6_PRIVATE_API 6.6.1
 _ZN17Surface3DRenderer27flatShadingSupportedChangedEb@Qt_6_PRIVATE_API 6.6.1
 _ZN17Surface3DRenderer28calculateSceneScalingFactorsEv@Qt_6_PRIVATE_API 6.6.1
 _ZN17Surface3DRenderer28convertPositionToTranslationERK9QVector3Db@Qt_6_PRIVATE_API 6.6.1
 _ZN17Surface3DRenderer6renderEj@Qt_6_PRIVATE_API 6.6.1
 _ZN17Surface3DRenderer8idToRGBAEjPhS0_S0_S0_@Qt_6_PRIVATE_API 6.6.1
 _ZN17Surface3DRenderer9drawSceneEj@Qt_6_PRIVATE_API 6.6.1
 _ZN17Surface3DRendererC1EP19Surface3DController@Qt_6_PRIVATE_API 6.6.1
 _ZN17Surface3DRendererC2EP19Surface3DController@Qt_6_PRIVATE_API 6.6.1
 _ZN17Surface3DRendererD0Ev@Qt_6_PRIVATE_API 6.6.1
 _ZN17Surface3DRendererD1Ev@Qt_6_PRIVATE_API 6.6.1
 _ZN17Surface3DRendererD2Ev@Qt_6_PRIVATE_API 6.6.1
 _ZN18QAbstractDataProxy11qt_metacallEN11QMetaObject4CallEiPPv@Qt_6 6.6.1
 _ZN18QAbstractDataProxy11qt_metacastEPKc@Qt_6 6.6.1
 _ZN18QAbstractDataProxy16staticMetaObjectE@Qt_6 6.6.1
 _ZN18QAbstractDataProxyC1EP25QAbstractDataProxyPrivateP7QObject@Qt_6_PRIVATE_API 6.6.1
 _ZN18QAbstractDataProxyC2EP25QAbstractDataProxyPrivateP7QObject@Qt_6_PRIVATE_API 6.6.1
 _ZN18QAbstractDataProxyD0Ev@Qt_6 6.6.1
 _ZN18QAbstractDataProxyD1Ev@Qt_6 6.6.1
 _ZN18QAbstractDataProxyD2Ev@Qt_6 6.6.1
 _ZN19Scatter3DController11qt_metacallEN11QMetaObject4CallEiPPv@Qt_6_PRIVATE_API 6.6.1
 _ZN19Scatter3DController11qt_metacastEPKc@Qt_6_PRIVATE_API 6.6.1
 _ZN19Scatter3DController12removeSeriesEP17QAbstract3DSeries@Qt_6_PRIVATE_API 6.6.1
 _ZN19Scatter3DController14clearSelectionEv@Qt_6_PRIVATE_API 6.6.1
 _ZN19Scatter3DController15setSelectedItemEiP16QScatter3DSeries@Qt_6_PRIVATE_API 6.6.1
 _ZN19Scatter3DController16adjustAxisRangesEv@Qt_6_PRIVATE_API 6.6.1
 _ZN19Scatter3DController16handleArrayResetEv@Qt_6_PRIVATE_API 6.6.1
 _ZN19Scatter3DController16handleItemsAddedEii@Qt_6_PRIVATE_API 6.6.1
 _ZN19Scatter3DController16initializeOpenGLEv@Qt_6_PRIVATE_API 6.6.1
 _ZN19Scatter3DController16setSelectionModeE6QFlagsIN16QAbstract3DGraph13SelectionFlagEE@Qt_6_PRIVATE_API 6.6.1
 _ZN19Scatter3DController16staticMetaObjectE@Qt_6_PRIVATE_API 6.6.1
 _ZN19Scatter3DController17scatterSeriesListEv@Qt_6_PRIVATE_API 6.6.1
 _ZN19Scatter3DController18handleItemsChangedEii@Qt_6_PRIVATE_API 6.6.1
 _ZN19Scatter3DController18handleItemsRemovedEii@Qt_6_PRIVATE_API 6.6.1
 _ZN19Scatter3DController18handlePendingClickEv@Qt_6_PRIVATE_API 6.6.1
 _ZN19Scatter3DController19handleItemsInsertedEii@Qt_6_PRIVATE_API 6.6.1
 _ZN19Scatter3DController19synchDataToRendererEv@Qt_6_PRIVATE_API 6.6.1
 _ZN19Scatter3DController21selectedSeriesChangedEP16QScatter3DSeries@Qt_6_PRIVATE_API 6.6.1
 _ZN19Scatter3DController30handleAxisRangeChangedBySenderEP7QObject@Qt_6_PRIVATE_API 6.6.1
 _ZN19Scatter3DController31startRecordingRemovesAndInsertsEv@Qt_6_PRIVATE_API 6.6.1
 _ZN19Scatter3DController45handleAxisAutoAdjustRangeChangedInOrientationEN15QAbstract3DAxis15AxisOrientationEb@Qt_6_PRIVATE_API 6.6.1
 _ZN19Scatter3DController9addSeriesEP17QAbstract3DSeries@Qt_6_PRIVATE_API 6.6.1
 _ZN19Scatter3DControllerC1E5QRectP8Q3DScene@Qt_6_PRIVATE_API 6.6.1
 _ZN19Scatter3DControllerC2E5QRectP8Q3DScene@Qt_6_PRIVATE_API 6.6.1
 _ZN19Scatter3DControllerD0Ev@Qt_6_PRIVATE_API 6.6.1
 _ZN19Scatter3DControllerD1Ev@Qt_6_PRIVATE_API 6.6.1
 _ZN19Scatter3DControllerD2Ev@Qt_6_PRIVATE_API 6.6.1
 _ZN19Surface3DController11qt_metacallEN11QMetaObject4CallEiPPv@Qt_6_PRIVATE_API 6.6.1
 _ZN19Surface3DController11qt_metacastEPKc@Qt_6_PRIVATE_API 6.6.1
 _ZN19Surface3DController12removeSeriesEP17QAbstract3DSeries@Qt_6_PRIVATE_API 6.6.1
 _ZN19Surface3DController14clearSelectionEv@Qt_6_PRIVATE_API 6.6.1
 _ZN19Surface3DController15handleRowsAddedEii@Qt_6_PRIVATE_API 6.6.1
 _ZN19Surface3DController16adjustAxisRangesEv@Qt_6_PRIVATE_API 6.6.1
 _ZN19Surface3DController16handleArrayResetEv@Qt_6_PRIVATE_API 6.6.1
 _ZN19Surface3DController16initializeOpenGLEv@Qt_6_PRIVATE_API 6.6.1
 _ZN19Surface3DController16setSelectedPointERK6QPointP16QSurface3DSeriesb@Qt_6_PRIVATE_API 6.6.1
 _ZN19Surface3DController16setSelectionModeE6QFlagsIN16QAbstract3DGraph13SelectionFlagEE@Qt_6_PRIVATE_API 6.6.1
 _ZN19Surface3DController16staticMetaObjectE@Qt_6_PRIVATE_API 6.6.1
 _ZN19Surface3DController17handleItemChangedEii@Qt_6_PRIVATE_API 6.6.1
 _ZN19Surface3DController17handleRowsChangedEii@Qt_6_PRIVATE_API 6.6.1
 _ZN19Surface3DController17handleRowsRemovedEii@Qt_6_PRIVATE_API 6.6.1
 _ZN19Surface3DController17surfaceSeriesListEv@Qt_6_PRIVATE_API 6.6.1
 _ZN19Surface3DController18handlePendingClickEv@Qt_6_PRIVATE_API 6.6.1
 _ZN19Surface3DController18handleRowsInsertedEii@Qt_6_PRIVATE_API 6.6.1
 _ZN19Surface3DController19synchDataToRendererEv@Qt_6_PRIVATE_API 6.6.1
 _ZN19Surface3DController20updateSurfaceTextureEP16QSurface3DSeries@Qt_6_PRIVATE_API 6.6.1
 _ZN19Surface3DController21selectedSeriesChangedEP16QSurface3DSeries@Qt_6_PRIVATE_API 6.6.1
 _ZN19Surface3DController21setFlipHorizontalGridEb@Qt_6_PRIVATE_API 6.6.1
 _ZN19Surface3DController22isFlatShadingSupportedEv@Qt_6_PRIVATE_API 6.6.1
 _ZN19Surface3DController24invalidSelectionPositionEv@Qt_6_PRIVATE_API 6.6.1
 _ZN19Surface3DController25flipHorizontalGridChangedEb@Qt_6_PRIVATE_API 6.6.1
 _ZN19Surface3DController30handleAxisRangeChangedBySenderEP7QObject@Qt_6_PRIVATE_API 6.6.1
 _ZN19Surface3DController32handleFlatShadingSupportedChangeEb@Qt_6_PRIVATE_API 6.6.1
 _ZN19Surface3DController37handleSeriesVisibilityChangedBySenderEP7QObject@Qt_6_PRIVATE_API 6.6.1
 _ZN19Surface3DController45handleAxisAutoAdjustRangeChangedInOrientationEN15QAbstract3DAxis15AxisOrientationEb@Qt_6_PRIVATE_API 6.6.1
 _ZN19Surface3DController9addSeriesEP17QAbstract3DSeries@Qt_6_PRIVATE_API 6.6.1
 _ZN19Surface3DControllerC1E5QRectP8Q3DScene@Qt_6_PRIVATE_API 6.6.1
 _ZN19Surface3DControllerC2E5QRectP8Q3DScene@Qt_6_PRIVATE_API 6.6.1
 _ZN19Surface3DControllerD0Ev@Qt_6_PRIVATE_API 6.6.1
 _ZN19Surface3DControllerD1Ev@Qt_6_PRIVATE_API 6.6.1
 _ZN19Surface3DControllerD2Ev@Qt_6_PRIVATE_API 6.6.1
 _ZN20Abstract3DController10needRenderEv@Qt_6_PRIVATE_API 6.6.1
 _ZN20Abstract3DController10seriesListEv@Qt_6_PRIVATE_API 6.6.1
 _ZN20Abstract3DController10touchEventEP11QTouchEvent@Qt_6_PRIVATE_API 6.6.1
 _ZN20Abstract3DController10wheelEventEP11QWheelEvent@Qt_6_PRIVATE_API 6.6.1
 _ZN20Abstract3DController11aspectRatioEv@Qt_6_PRIVATE_API 6.6.1
 _ZN20Abstract3DController11qt_metacallEN11QMetaObject4CallEiPPv@Qt_6_PRIVATE_API 6.6.1
 _ZN20Abstract3DController11qt_metacastEPKc@Qt_6_PRIVATE_API 6.6.1
 _ZN20Abstract3DController11releaseAxisEP15QAbstract3DAxis@Qt_6_PRIVATE_API 6.6.1
 _ZN20Abstract3DController11setRendererEP18Abstract3DRenderer@Qt_6_PRIVATE_API 6.6.1
 _ZN20Abstract3DController12axisXChangedEP15QAbstract3DAxis@Qt_6_PRIVATE_API 6.6.1
 _ZN20Abstract3DController12axisYChangedEP15QAbstract3DAxis@Qt_6_PRIVATE_API 6.6.1
 _ZN20Abstract3DController12axisZChangedEP15QAbstract3DAxis@Qt_6_PRIVATE_API 6.6.1
 _ZN20Abstract3DController12insertSeriesEiP17QAbstract3DSeries@Qt_6_PRIVATE_API 6.6.1
 _ZN20Abstract3DController12polarChangedEb@Qt_6_PRIVATE_API 6.6.1
 _ZN20Abstract3DController12releaseThemeEP8Q3DTheme@Qt_6_PRIVATE_API 6.6.1
 _ZN20Abstract3DController12removeSeriesEP17QAbstract3DSeries@Qt_6_PRIVATE_API 6.6.1
 _ZN20Abstract3DController13addCustomItemEP13QCustom3DItem@Qt_6_PRIVATE_API 6.6.1
 _ZN20Abstract3DController13localeChangedERK7QLocale@Qt_6_PRIVATE_API 6.6.1
 _ZN20Abstract3DController13marginChangedEd@Qt_6_PRIVATE_API 6.6.1
 _ZN20Abstract3DController13markDataDirtyEv@Qt_6_PRIVATE_API 6.6.1
 _ZN20Abstract3DController13requestRenderEP24QOpenGLFramebufferObject@Qt_6_PRIVATE_API 6.6.1
 _ZN20Abstract3DController13setAxisHelperEN15QAbstract3DAxis15AxisOrientationEPS0_PS2_@Qt_6_PRIVATE_API 6.6.1
 _ZN20Abstract3DController13setMeasureFpsEb@Qt_6_PRIVATE_API 6.6.1
 _ZN20Abstract3DController13setReflectionEb@Qt_6_PRIVATE_API 6.6.1
 _ZN20Abstract3DController14emitNeedRenderEv@Qt_6_PRIVATE_API 6.6.1
 _ZN20Abstract3DController14mouseMoveEventEP11QMouseEventRK6QPoint@Qt_6_PRIVATE_API 6.6.1
 _ZN20Abstract3DController14setActiveThemeEP8Q3DThemeb@Qt_6_PRIVATE_API 6.6.1
 _ZN20Abstract3DController14setAspectRatioEd@Qt_6_PRIVATE_API 6.6.1
 _ZN20Abstract3DController15addInputHandlerEP23QAbstract3DInputHandler@Qt_6_PRIVATE_API 6.6.1
 _ZN20Abstract3DController15destroyRendererEv@Qt_6_PRIVATE_API 6.6.1
 _ZN20Abstract3DController15elementSelectedEN16QAbstract3DGraph11ElementTypeE@Qt_6_PRIVATE_API 6.6.1
 _ZN20Abstract3DController15mousePressEventEP11QMouseEventRK6QPoint@Qt_6_PRIVATE_API 6.6.1
 _ZN20Abstract3DController15setReflectivityEd@Qt_6_PRIVATE_API 6.6.1
 _ZN20Abstract3DController16deleteCustomItemEP13QCustom3DItem@Qt_6_PRIVATE_API 6.6.1
 _ZN20Abstract3DController16deleteCustomItemERK9QVector3D@Qt_6_PRIVATE_API 6.6.1
 _ZN20Abstract3DController16setSelectionModeE6QFlagsIN16QAbstract3DGraph13SelectionFlagEE@Qt_6_PRIVATE_API 6.6.1
 _ZN20Abstract3DController16setShadowQualityEN16QAbstract3DGraph13ShadowQualityE@Qt_6_PRIVATE_API 6.6.1
 _ZN20Abstract3DController16setSlicingActiveEb@Qt_6_PRIVATE_API 6.6.1
 _ZN20Abstract3DController16staticMetaObjectE@Qt_6_PRIVATE_API 6.6.1
 _ZN20Abstract3DController16updateCustomItemEv@Qt_6_PRIVATE_API 6.6.1
 _ZN20Abstract3DController17createDefaultAxisEN15QAbstract3DAxis15AxisOrientationE@Qt_6_PRIVATE_API 6.6.1
 _ZN20Abstract3DController17currentFpsChangedEd@Qt_6_PRIVATE_API 6.6.1
 _ZN20Abstract3DController17deleteCustomItemsEv@Qt_6_PRIVATE_API 6.6.1
 _ZN20Abstract3DController17measureFpsChangedEb@Qt_6_PRIVATE_API 6.6.1
 _ZN20Abstract3DController17mouseReleaseEventEP11QMouseEventRK6QPoint@Qt_6_PRIVATE_API 6.6.1
 _ZN20Abstract3DController17reflectionChangedEb@Qt_6_PRIVATE_API 6.6.1
 _ZN20Abstract3DController17releaseCustomItemEP13QCustom3DItem@Qt_6_PRIVATE_API 6.6.1
 _ZN20Abstract3DController18activeInputHandlerEv@Qt_6_PRIVATE_API 6.6.1
 _ZN20Abstract3DController18activeThemeChangedEP8Q3DTheme@Qt_6_PRIVATE_API 6.6.1
 _ZN20Abstract3DController18aspectRatioChangedEd@Qt_6_PRIVATE_API 6.6.1
 _ZN20Abstract3DController18doSetShadowQualityEN16QAbstract3DGraph13ShadowQualityE@Qt_6_PRIVATE_API 6.6.1
 _ZN20Abstract3DController18handlePendingClickEv@Qt_6_PRIVATE_API 6.6.1
 _ZN20Abstract3DController18setOrthoProjectionEb@Qt_6_PRIVATE_API 6.6.1
 _ZN20Abstract3DController19reflectivityChangedEd@Qt_6_PRIVATE_API 6.6.1
 _ZN20Abstract3DController19releaseInputHandlerEP23QAbstract3DInputHandler@Qt_6_PRIVATE_API 6.6.1
 _ZN20Abstract3DController19synchDataToRendererEv@Qt_6_PRIVATE_API 6.6.1
 _ZN20Abstract3DController20selectionModeChangedE6QFlagsIN16QAbstract3DGraph13SelectionFlagEE@Qt_6_PRIVATE_API 6.6.1
 _ZN20Abstract3DController20setOptimizationHintsE6QFlagsIN16QAbstract3DGraph16OptimizationHintEE@Qt_6_PRIVATE_API 6.6.1
 _ZN20Abstract3DController20setRadialLabelOffsetEf@Qt_6_PRIVATE_API 6.6.1
 _ZN20Abstract3DController20shadowQualityChangedEN16QAbstract3DGraph13ShadowQualityE@Qt_6_PRIVATE_API 6.6.1
 _ZN20Abstract3DController21mouseDoubleClickEventEP11QMouseEvent@Qt_6_PRIVATE_API 6.6.1
 _ZN20Abstract3DController21setActiveInputHandlerEP23QAbstract3DInputHandler@Qt_6_PRIVATE_API 6.6.1
 _ZN20Abstract3DController22createDefaultValueAxisEv@Qt_6_PRIVATE_API 6.6.1
 _ZN20Abstract3DController22handleAxisRangeChangedEff@Qt_6_PRIVATE_API 6.6.1
 _ZN20Abstract3DController22handleAxisTitleChangedERK7QString@Qt_6_PRIVATE_API 6.6.1
 _ZN20Abstract3DController22handleInputViewChangedEN23QAbstract3DInputHandler9InputViewE@Qt_6_PRIVATE_API 6.6.1
 _ZN20Abstract3DController22handleThemeTypeChangedEN8Q3DTheme5ThemeE@Qt_6_PRIVATE_API 6.6.1
 _ZN20Abstract3DController22markSeriesVisualsDirtyEv@Qt_6_PRIVATE_API 6.6.1
 _ZN20Abstract3DController22orthoProjectionChangedEb@Qt_6_PRIVATE_API 6.6.1
 _ZN20Abstract3DController23handleAxisLabelsChangedEv@Qt_6_PRIVATE_API 6.6.1
 _ZN20Abstract3DController24handleAxisFormatterDirtyEv@Qt_6_PRIVATE_API 6.6.1
 _ZN20Abstract3DController24optimizationHintsChangedE6QFlagsIN16QAbstract3DGraph16OptimizationHintEE@Qt_6_PRIVATE_API 6.6.1
 _ZN20Abstract3DController24radialLabelOffsetChangedEf@Qt_6_PRIVATE_API 6.6.1
 _ZN20Abstract3DController24setHorizontalAspectRatioEd@Qt_6_PRIVATE_API 6.6.1
 _ZN20Abstract3DController25activeInputHandlerChangedEP23QAbstract3DInputHandler@Qt_6_PRIVATE_API 6.6.1
 _ZN20Abstract3DController25createDefaultCategoryAxisEv@Qt_6_PRIVATE_API 6.6.1
 _ZN20Abstract3DController25handleAxisReversedChangedEb@Qt_6_PRIVATE_API 6.6.1
 _ZN20Abstract3DController25markSeriesItemLabelsDirtyEv@Qt_6_PRIVATE_API 6.6.1
 _ZN20Abstract3DController26handleInputPositionChangedERK6QPoint@Qt_6_PRIVATE_API 6.6.1
 _ZN20Abstract3DController26handleRequestShadowQualityEN16QAbstract3DGraph13ShadowQualityE@Qt_6_PRIVATE_API 6.6.1
 _ZN20Abstract3DController27handleAxisTitleFixedChangedEb@Qt_6_PRIVATE_API 6.6.1
 _ZN20Abstract3DController27queriedGraphPositionChangedERK9QVector3D@Qt_6_PRIVATE_API 6.6.1
 _ZN20Abstract3DController28handleAxisLabelFormatChangedERK7QString@Qt_6_PRIVATE_API 6.6.1
 _ZN20Abstract3DController28handleThemeBaseColorsChangedERK5QListI6QColorE@Qt_6_PRIVATE_API 6.6.1
 _ZN20Abstract3DController28handleThemeColorStyleChangedEN8Q3DTheme10ColorStyleE@Qt_6_PRIVATE_API 6.6.1
 _ZN20Abstract3DController28horizontalAspectRatioChangedEd@Qt_6_PRIVATE_API 6.6.1
 _ZN20Abstract3DController29handleAxisSegmentCountChangedEi@Qt_6_PRIVATE_API 6.6.1
 _ZN20Abstract3DController29handleSeriesVisibilityChangedEb@Qt_6_PRIVATE_API 6.6.1
 _ZN20Abstract3DController30handleAxisRangeChangedBySenderEP7QObject@Qt_6_PRIVATE_API 6.6.1
 _ZN20Abstract3DController30handleAxisTitleChangedBySenderEP7QObject@Qt_6_PRIVATE_API 6.6.1
 _ZN20Abstract3DController31handleAxisLabelsChangedBySenderEP7QObject@Qt_6_PRIVATE_API 6.6.1
 _ZN20Abstract3DController31handlePendingGraphPositionQueryEv@Qt_6_PRIVATE_API 6.6.1
 _ZN20Abstract3DController31handleThemeBaseGradientsChangedERK5QListI15QLinearGradientE@Qt_6_PRIVATE_API 6.6.1
 _ZN20Abstract3DController31startRecordingRemovesAndInsertsEv@Qt_6_PRIVATE_API 6.6.1
 _ZN20Abstract3DController32handleAxisAutoAdjustRangeChangedEb@Qt_6_PRIVATE_API 6.6.1
 _ZN20Abstract3DController32handleAxisFormatterDirtyBySenderEP7QObject@Qt_6_PRIVATE_API 6.6.1
 _ZN20Abstract3DController32handleAxisSubSegmentCountChangedEi@Qt_6_PRIVATE_API 6.6.1
 _ZN20Abstract3DController32handleAxisTitleVisibilityChangedEb@Qt_6_PRIVATE_API 6.6.1
 _ZN20Abstract3DController33handleAxisReversedChangedBySenderEP7QObject@Qt_6_PRIVATE_API 6.6.1
 _ZN20Abstract3DController34handleAxisLabelAutoRotationChangedEf@Qt_6_PRIVATE_API 6.6.1
 _ZN20Abstract3DController35handleAxisTitleFixedChangedBySenderEP7QObject@Qt_6_PRIVATE_API 6.6.1
 _ZN20Abstract3DController36handleAxisLabelFormatChangedBySenderEP7QObject@Qt_6_PRIVATE_API 6.6.1
 _ZN20Abstract3DController37handleAxisSegmentCountChangedBySenderEP7QObject@Qt_6_PRIVATE_API 6.6.1
 _ZN20Abstract3DController37handleSeriesVisibilityChangedBySenderEP7QObject@Qt_6_PRIVATE_API 6.6.1
 _ZN20Abstract3DController37handleThemeMultiHighlightColorChangedERK6QColor@Qt_6_PRIVATE_API 6.6.1
 _ZN20Abstract3DController38handleThemeSingleHighlightColorChangedERK6QColor@Qt_6_PRIVATE_API 6.6.1
 _ZN20Abstract3DController40handleAxisSubSegmentCountChangedBySenderEP7QObject@Qt_6_PRIVATE_API 6.6.1
 _ZN20Abstract3DController40handleAxisTitleVisibilityChangedBySenderEP7QObject@Qt_6_PRIVATE_API 6.6.1
 _ZN20Abstract3DController40handleThemeMultiHighlightGradientChangedERK15QLinearGradient@Qt_6_PRIVATE_API 6.6.1
 _ZN20Abstract3DController41handleThemeSingleHighlightGradientChangedERK15QLinearGradient@Qt_6_PRIVATE_API 6.6.1
 _ZN20Abstract3DController42handleAxisLabelAutoRotationChangedBySenderEP7QObject@Qt_6_PRIVATE_API 6.6.1
 _ZN20Abstract3DController5sceneEv@Qt_6_PRIVATE_API 6.6.1
 _ZN20Abstract3DController6renderEj@Qt_6_PRIVATE_API 6.6.1
 _ZN20Abstract3DController7addAxisEP15QAbstract3DAxis@Qt_6_PRIVATE_API 6.6.1
 _ZN20Abstract3DController8addThemeEP8Q3DTheme@Qt_6_PRIVATE_API 6.6.1
 _ZN20Abstract3DController8setAxisXEP15QAbstract3DAxis@Qt_6_PRIVATE_API 6.6.1
 _ZN20Abstract3DController8setAxisYEP15QAbstract3DAxis@Qt_6_PRIVATE_API 6.6.1
 _ZN20Abstract3DController8setAxisZEP15QAbstract3DAxis@Qt_6_PRIVATE_API 6.6.1
 _ZN20Abstract3DController8setPolarEb@Qt_6_PRIVATE_API 6.6.1
 _ZN20Abstract3DController9addSeriesEP17QAbstract3DSeries@Qt_6_PRIVATE_API 6.6.1
 _ZN20Abstract3DController9hasSeriesEP17QAbstract3DSeries@Qt_6_PRIVATE_API 6.6.1
 _ZN20Abstract3DController9setLocaleERK7QLocale@Qt_6_PRIVATE_API 6.6.1
 _ZN20Abstract3DController9setMarginEd@Qt_6_PRIVATE_API 6.6.1
 _ZN20Abstract3DControllerC1E5QRectP8Q3DSceneP7QObject@Qt_6_PRIVATE_API 6.6.1
 _ZN20Abstract3DControllerC2E5QRectP8Q3DSceneP7QObject@Qt_6_PRIVATE_API 6.6.1
 _ZN20Abstract3DControllerD0Ev@Qt_6_PRIVATE_API 6.6.1
 _ZN20Abstract3DControllerD1Ev@Qt_6_PRIVATE_API 6.6.1
 _ZN20Abstract3DControllerD2Ev@Qt_6_PRIVATE_API 6.6.1
 _ZN20QTouch3DInputHandler10touchEventEP11QTouchEvent@Qt_6 6.6.1
 _ZN20QTouch3DInputHandler11qt_metacallEN11QMetaObject4CallEiPPv@Qt_6 6.6.1
 _ZN20QTouch3DInputHandler11qt_metacastEPKc@Qt_6 6.6.1
 _ZN20QTouch3DInputHandler16staticMetaObjectE@Qt_6 6.6.1
 _ZN20QTouch3DInputHandlerC1EP7QObject@Qt_6 6.6.1
 _ZN20QTouch3DInputHandlerC2EP7QObject@Qt_6 6.6.1
 _ZN20QTouch3DInputHandlerD0Ev@Qt_6 6.6.1
 _ZN20QTouch3DInputHandlerD1Ev@Qt_6 6.6.1
 _ZN20QTouch3DInputHandlerD2Ev@Qt_6 6.6.1
 _ZN21QValue3DAxisFormatter11qt_metacallEN11QMetaObject4CallEiPPv@Qt_6 6.6.1
 _ZN21QValue3DAxisFormatter11qt_metacastEPKc@Qt_6 6.6.1
 _ZN21QValue3DAxisFormatter11recalculateEv@Qt_6 6.6.1
 _ZN21QValue3DAxisFormatter12setAllowZeroEb@Qt_6 6.6.1
 _ZN21QValue3DAxisFormatter16staticMetaObjectE@Qt_6 6.6.1
 _ZN21QValue3DAxisFormatter17setAllowNegativesEb@Qt_6 6.6.1
 _ZN21QValue3DAxisFormatter9markDirtyEb@Qt_6 6.6.1
 _ZN21QValue3DAxisFormatter9setLocaleERK7QLocale@Qt_6 6.6.1
 _ZN21QValue3DAxisFormatterC1EP28QValue3DAxisFormatterPrivateP7QObject@Qt_6_PRIVATE_API 6.6.1
 _ZN21QValue3DAxisFormatterC1EP7QObject@Qt_6 6.6.1
 _ZN21QValue3DAxisFormatterC2EP28QValue3DAxisFormatterPrivateP7QObject@Qt_6_PRIVATE_API 6.6.1
 _ZN21QValue3DAxisFormatterC2EP7QObject@Qt_6 6.6.1
 _ZN21QValue3DAxisFormatterD0Ev@Qt_6 6.6.1
 _ZN21QValue3DAxisFormatterD1Ev@Qt_6 6.6.1
 _ZN21QValue3DAxisFormatterD2Ev@Qt_6 6.6.1
 _ZN22QItemModelBarDataProxy10setRowRoleERK7QString@Qt_6 6.6.1
 _ZN22QItemModelBarDataProxy11qt_metacallEN11QMetaObject4CallEiPPv@Qt_6 6.6.1
 _ZN22QItemModelBarDataProxy11qt_metacastEPKc@Qt_6 6.6.1
 _ZN22QItemModelBarDataProxy12setItemModelEP18QAbstractItemModel@Qt_6 6.6.1
 _ZN22QItemModelBarDataProxy12setValueRoleERK7QString@Qt_6 6.6.1
 _ZN22QItemModelBarDataProxy13setColumnRoleERK7QString@Qt_6 6.6.1
 _ZN22QItemModelBarDataProxy14rowRoleChangedERK7QString@Qt_6 6.6.1
 _ZN22QItemModelBarDataProxy15setRotationRoleERK7QString@Qt_6 6.6.1
 _ZN22QItemModelBarDataProxy16itemModelChangedEPK18QAbstractItemModel@Qt_6 6.6.1
 _ZN22QItemModelBarDataProxy16rowCategoryIndexERK7QString@Qt_6 6.6.1
 _ZN22QItemModelBarDataProxy16setRowCategoriesERK5QListI7QStringE@Qt_6 6.6.1
 _ZN22QItemModelBarDataProxy16staticMetaObjectE@Qt_6 6.6.1
 _ZN22QItemModelBarDataProxy16valueRoleChangedERK7QString@Qt_6 6.6.1
 _ZN22QItemModelBarDataProxy17columnRoleChangedERK7QString@Qt_6 6.6.1
 _ZN22QItemModelBarDataProxy17setRowRolePatternERK18QRegularExpression@Qt_6 6.6.1
 _ZN22QItemModelBarDataProxy17setRowRoleReplaceERK7QString@Qt_6 6.6.1
 _ZN22QItemModelBarDataProxy19columnCategoryIndexERK7QString@Qt_6 6.6.1
 _ZN22QItemModelBarDataProxy19rotationRoleChangedERK7QString@Qt_6 6.6.1
 _ZN22QItemModelBarDataProxy19setColumnCategoriesERK5QListI7QStringE@Qt_6 6.6.1
 _ZN22QItemModelBarDataProxy19setValueRolePatternERK18QRegularExpression@Qt_6 6.6.1
 _ZN22QItemModelBarDataProxy19setValueRoleReplaceERK7QString@Qt_6 6.6.1
 _ZN22QItemModelBarDataProxy20rowCategoriesChangedEv@Qt_6 6.6.1
 _ZN22QItemModelBarDataProxy20setAutoRowCategoriesEb@Qt_6 6.6.1
 _ZN22QItemModelBarDataProxy20setColumnRolePatternERK18QRegularExpression@Qt_6 6.6.1
 _ZN22QItemModelBarDataProxy20setColumnRoleReplaceERK7QString@Qt_6 6.6.1
 _ZN22QItemModelBarDataProxy21rowRolePatternChangedERK18QRegularExpression@Qt_6 6.6.1
 _ZN22QItemModelBarDataProxy21rowRoleReplaceChangedERK7QString@Qt_6 6.6.1
 _ZN22QItemModelBarDataProxy21setMultiMatchBehaviorENS_18MultiMatchBehaviorE@Qt_6 6.6.1
 _ZN22QItemModelBarDataProxy21setUseModelCategoriesEb@Qt_6 6.6.1
 _ZN22QItemModelBarDataProxy22setRotationRolePatternERK18QRegularExpression@Qt_6 6.6.1
 _ZN22QItemModelBarDataProxy22setRotationRoleReplaceERK7QString@Qt_6 6.6.1
 _ZN22QItemModelBarDataProxy23columnCategoriesChangedEv@Qt_6 6.6.1
 _ZN22QItemModelBarDataProxy23setAutoColumnCategoriesEb@Qt_6 6.6.1
 _ZN22QItemModelBarDataProxy23valueRolePatternChangedERK18QRegularExpression@Qt_6 6.6.1
 _ZN22QItemModelBarDataProxy23valueRoleReplaceChangedERK7QString@Qt_6 6.6.1
 _ZN22QItemModelBarDataProxy24autoRowCategoriesChangedEb@Qt_6 6.6.1
 _ZN22QItemModelBarDataProxy24columnRolePatternChangedERK18QRegularExpression@Qt_6 6.6.1
 _ZN22QItemModelBarDataProxy24columnRoleReplaceChangedERK7QString@Qt_6 6.6.1
 _ZN22QItemModelBarDataProxy25multiMatchBehaviorChangedENS_18MultiMatchBehaviorE@Qt_6 6.6.1
 _ZN22QItemModelBarDataProxy25useModelCategoriesChangedEb@Qt_6 6.6.1
 _ZN22QItemModelBarDataProxy26rotationRolePatternChangedERK18QRegularExpression@Qt_6 6.6.1
 _ZN22QItemModelBarDataProxy26rotationRoleReplaceChangedERK7QString@Qt_6 6.6.1
 _ZN22QItemModelBarDataProxy27autoColumnCategoriesChangedEb@Qt_6 6.6.1
 _ZN22QItemModelBarDataProxy4dptrEv@Qt_6 6.6.1
 _ZN22QItemModelBarDataProxy5remapERK7QStringS2_S2_S2_RK5QListIS0_ES6_@Qt_6 6.6.1
 _ZN22QItemModelBarDataProxyC1EP18QAbstractItemModelP7QObject@Qt_6 6.6.1
 _ZN22QItemModelBarDataProxyC1EP18QAbstractItemModelRK7QStringP7QObject@Qt_6 6.6.1
 _ZN22QItemModelBarDataProxyC1EP18QAbstractItemModelRK7QStringS4_S4_P7QObject@Qt_6 6.6.1
 _ZN22QItemModelBarDataProxyC1EP18QAbstractItemModelRK7QStringS4_S4_RK5QListIS2_ES8_P7QObject@Qt_6 6.6.1
 _ZN22QItemModelBarDataProxyC1EP18QAbstractItemModelRK7QStringS4_S4_S4_P7QObject@Qt_6 6.6.1
 _ZN22QItemModelBarDataProxyC1EP18QAbstractItemModelRK7QStringS4_S4_S4_RK5QListIS2_ES8_P7QObject@Qt_6 6.6.1
 _ZN22QItemModelBarDataProxyC1EP7QObject@Qt_6 6.6.1
 _ZN22QItemModelBarDataProxyC2EP18QAbstractItemModelP7QObject@Qt_6 6.6.1
 _ZN22QItemModelBarDataProxyC2EP18QAbstractItemModelRK7QStringP7QObject@Qt_6 6.6.1
 _ZN22QItemModelBarDataProxyC2EP18QAbstractItemModelRK7QStringS4_S4_P7QObject@Qt_6 6.6.1
 _ZN22QItemModelBarDataProxyC2EP18QAbstractItemModelRK7QStringS4_S4_RK5QListIS2_ES8_P7QObject@Qt_6 6.6.1
 _ZN22QItemModelBarDataProxyC2EP18QAbstractItemModelRK7QStringS4_S4_S4_P7QObject@Qt_6 6.6.1
 _ZN22QItemModelBarDataProxyC2EP18QAbstractItemModelRK7QStringS4_S4_S4_RK5QListIS2_ES8_P7QObject@Qt_6 6.6.1
 _ZN22QItemModelBarDataProxyC2EP7QObject@Qt_6 6.6.1
 _ZN22QItemModelBarDataProxyD0Ev@Qt_6 6.6.1
 _ZN22QItemModelBarDataProxyD1Ev@Qt_6 6.6.1
 _ZN22QItemModelBarDataProxyD2Ev@Qt_6 6.6.1
 _ZN23QAbstract3DInputHandler10touchEventEP11QTouchEvent@Qt_6 6.6.1
 _ZN23QAbstract3DInputHandler10wheelEventEP11QWheelEvent@Qt_6 6.6.1
 _ZN23QAbstract3DInputHandler11qt_metacallEN11QMetaObject4CallEiPPv@Qt_6 6.6.1
 _ZN23QAbstract3DInputHandler11qt_metacastEPKc@Qt_6 6.6.1
 _ZN23QAbstract3DInputHandler12sceneChangedEP8Q3DScene@Qt_6 6.6.1
 _ZN23QAbstract3DInputHandler12setInputViewENS_9InputViewE@Qt_6 6.6.1
 _ZN23QAbstract3DInputHandler14mouseMoveEventEP11QMouseEventRK6QPoint@Qt_6 6.6.1
 _ZN23QAbstract3DInputHandler15mousePressEventEP11QMouseEventRK6QPoint@Qt_6 6.6.1
 _ZN23QAbstract3DInputHandler15positionChangedERK6QPoint@Qt_6 6.6.1
 _ZN23QAbstract3DInputHandler15setPrevDistanceEi@Qt_6 6.6.1
 _ZN23QAbstract3DInputHandler16inputViewChangedENS_9InputViewE@Qt_6 6.6.1
 _ZN23QAbstract3DInputHandler16setInputPositionERK6QPoint@Qt_6 6.6.1
 _ZN23QAbstract3DInputHandler16staticMetaObjectE@Qt_6 6.6.1
 _ZN23QAbstract3DInputHandler17mouseReleaseEventEP11QMouseEventRK6QPoint@Qt_6 6.6.1
 _ZN23QAbstract3DInputHandler19setPreviousInputPosERK6QPoint@Qt_6 6.6.1
 _ZN23QAbstract3DInputHandler21mouseDoubleClickEventEP11QMouseEvent@Qt_6 6.6.1
 _ZN23QAbstract3DInputHandler8setSceneEP8Q3DScene@Qt_6 6.6.1
 _ZN23QAbstract3DInputHandlerC1EP7QObject@Qt_6 6.6.1
 _ZN23QAbstract3DInputHandlerC2EP7QObject@Qt_6 6.6.1
 _ZN23QAbstract3DInputHandlerD0Ev@Qt_6 6.6.1
 _ZN23QAbstract3DInputHandlerD1Ev@Qt_6 6.6.1
 _ZN23QAbstract3DInputHandlerD2Ev@Qt_6 6.6.1
 _ZN24QLogValue3DAxisFormatter11baseChangedEd@Qt_6 6.6.1
 _ZN24QLogValue3DAxisFormatter11qt_metacallEN11QMetaObject4CallEiPPv@Qt_6 6.6.1
 _ZN24QLogValue3DAxisFormatter11qt_metacastEPKc@Qt_6 6.6.1
 _ZN24QLogValue3DAxisFormatter11recalculateEv@Qt_6 6.6.1
 _ZN24QLogValue3DAxisFormatter14setAutoSubGridEb@Qt_6 6.6.1
 _ZN24QLogValue3DAxisFormatter16staticMetaObjectE@Qt_6 6.6.1
 _ZN24QLogValue3DAxisFormatter17setShowEdgeLabelsEb@Qt_6 6.6.1
 _ZN24QLogValue3DAxisFormatter18autoSubGridChangedEb@Qt_6 6.6.1
 _ZN24QLogValue3DAxisFormatter21showEdgeLabelsChangedEb@Qt_6 6.6.1
 _ZN24QLogValue3DAxisFormatter4dptrEv@Qt_6 6.6.1
 _ZN24QLogValue3DAxisFormatter7setBaseEd@Qt_6 6.6.1
 _ZN24QLogValue3DAxisFormatterC1EP31QLogValue3DAxisFormatterPrivateP7QObject@Qt_6_PRIVATE_API 6.6.1
 _ZN24QLogValue3DAxisFormatterC1EP7QObject@Qt_6 6.6.1
 _ZN24QLogValue3DAxisFormatterC2EP31QLogValue3DAxisFormatterPrivateP7QObject@Qt_6_PRIVATE_API 6.6.1
 _ZN24QLogValue3DAxisFormatterC2EP7QObject@Qt_6 6.6.1
 _ZN24QLogValue3DAxisFormatterD0Ev@Qt_6 6.6.1
 _ZN24QLogValue3DAxisFormatterD1Ev@Qt_6 6.6.1
 _ZN24QLogValue3DAxisFormatterD2Ev@Qt_6 6.6.1
 _ZN26QHeightMapSurfaceDataProxy11qt_metacallEN11QMetaObject4CallEiPPv@Qt_6 6.6.1
 _ZN26QHeightMapSurfaceDataProxy11qt_metacastEPKc@Qt_6 6.6.1
 _ZN26QHeightMapSurfaceDataProxy12setHeightMapERK6QImage@Qt_6 6.6.1
 _ZN26QHeightMapSurfaceDataProxy12setMaxXValueEf@Qt_6 6.6.1
 _ZN26QHeightMapSurfaceDataProxy12setMaxYValueEf@Qt_6 6.6.1
 _ZN26QHeightMapSurfaceDataProxy12setMaxZValueEf@Qt_6 6.6.1
 _ZN26QHeightMapSurfaceDataProxy12setMinXValueEf@Qt_6 6.6.1
 _ZN26QHeightMapSurfaceDataProxy12setMinYValueEf@Qt_6 6.6.1
 _ZN26QHeightMapSurfaceDataProxy12setMinZValueEf@Qt_6 6.6.1
 _ZN26QHeightMapSurfaceDataProxy13setAutoScaleYEb@Qt_6 6.6.1
 _ZN26QHeightMapSurfaceDataProxy14setValueRangesEffff@Qt_6 6.6.1
 _ZN26QHeightMapSurfaceDataProxy16heightMapChangedERK6QImage@Qt_6 6.6.1
 _ZN26QHeightMapSurfaceDataProxy16maxXValueChangedEf@Qt_6 6.6.1
 _ZN26QHeightMapSurfaceDataProxy16maxYValueChangedEf@Qt_6 6.6.1
 _ZN26QHeightMapSurfaceDataProxy16maxZValueChangedEf@Qt_6 6.6.1
 _ZN26QHeightMapSurfaceDataProxy16minXValueChangedEf@Qt_6 6.6.1
 _ZN26QHeightMapSurfaceDataProxy16minYValueChangedEf@Qt_6 6.6.1
 _ZN26QHeightMapSurfaceDataProxy16minZValueChangedEf@Qt_6 6.6.1
 _ZN26QHeightMapSurfaceDataProxy16setHeightMapFileERK7QString@Qt_6 6.6.1
 _ZN26QHeightMapSurfaceDataProxy16staticMetaObjectE@Qt_6 6.6.1
 _ZN26QHeightMapSurfaceDataProxy17autoScaleYChangedEb@Qt_6 6.6.1
 _ZN26QHeightMapSurfaceDataProxy20heightMapFileChangedERK7QString@Qt_6 6.6.1
 _ZN26QHeightMapSurfaceDataProxy4dptrEv@Qt_6 6.6.1
 _ZN26QHeightMapSurfaceDataProxyC1EP33QHeightMapSurfaceDataProxyPrivateP7QObject@Qt_6_PRIVATE_API 6.6.1
 _ZN26QHeightMapSurfaceDataProxyC1EP7QObject@Qt_6 6.6.1
 _ZN26QHeightMapSurfaceDataProxyC1ERK6QImageP7QObject@Qt_6 6.6.1
 _ZN26QHeightMapSurfaceDataProxyC1ERK7QStringP7QObject@Qt_6 6.6.1
 _ZN26QHeightMapSurfaceDataProxyC2EP33QHeightMapSurfaceDataProxyPrivateP7QObject@Qt_6_PRIVATE_API 6.6.1
 _ZN26QHeightMapSurfaceDataProxyC2EP7QObject@Qt_6 6.6.1
 _ZN26QHeightMapSurfaceDataProxyC2ERK6QImageP7QObject@Qt_6 6.6.1
 _ZN26QHeightMapSurfaceDataProxyC2ERK7QStringP7QObject@Qt_6 6.6.1
 _ZN26QHeightMapSurfaceDataProxyD0Ev@Qt_6 6.6.1
 _ZN26QHeightMapSurfaceDataProxyD1Ev@Qt_6 6.6.1
 _ZN26QHeightMapSurfaceDataProxyD2Ev@Qt_6 6.6.1
 _ZN26QItemModelScatterDataProxy11qt_metacallEN11QMetaObject4CallEiPPv@Qt_6 6.6.1
 _ZN26QItemModelScatterDataProxy11qt_metacastEPKc@Qt_6 6.6.1
 _ZN26QItemModelScatterDataProxy11setXPosRoleERK7QString@Qt_6 6.6.1
 _ZN26QItemModelScatterDataProxy11setYPosRoleERK7QString@Qt_6 6.6.1
 _ZN26QItemModelScatterDataProxy11setZPosRoleERK7QString@Qt_6 6.6.1
 _ZN26QItemModelScatterDataProxy12setItemModelEP18QAbstractItemModel@Qt_6 6.6.1
 _ZN26QItemModelScatterDataProxy15setRotationRoleERK7QString@Qt_6 6.6.1
 _ZN26QItemModelScatterDataProxy15xPosRoleChangedERK7QString@Qt_6 6.6.1
 _ZN26QItemModelScatterDataProxy15yPosRoleChangedERK7QString@Qt_6 6.6.1
 _ZN26QItemModelScatterDataProxy15zPosRoleChangedERK7QString@Qt_6 6.6.1
 _ZN26QItemModelScatterDataProxy16itemModelChangedEPK18QAbstractItemModel@Qt_6 6.6.1
 _ZN26QItemModelScatterDataProxy16staticMetaObjectE@Qt_6 6.6.1
 _ZN26QItemModelScatterDataProxy18setXPosRolePatternERK18QRegularExpression@Qt_6 6.6.1
 _ZN26QItemModelScatterDataProxy18setXPosRoleReplaceERK7QString@Qt_6 6.6.1
 _ZN26QItemModelScatterDataProxy18setYPosRolePatternERK18QRegularExpression@Qt_6 6.6.1
 _ZN26QItemModelScatterDataProxy18setYPosRoleReplaceERK7QString@Qt_6 6.6.1
 _ZN26QItemModelScatterDataProxy18setZPosRolePatternERK18QRegularExpression@Qt_6 6.6.1
 _ZN26QItemModelScatterDataProxy18setZPosRoleReplaceERK7QString@Qt_6 6.6.1
 _ZN26QItemModelScatterDataProxy19rotationRoleChangedERK7QString@Qt_6 6.6.1
 _ZN26QItemModelScatterDataProxy22setRotationRolePatternERK18QRegularExpression@Qt_6 6.6.1
 _ZN26QItemModelScatterDataProxy22setRotationRoleReplaceERK7QString@Qt_6 6.6.1
 _ZN26QItemModelScatterDataProxy22xPosRolePatternChangedERK18QRegularExpression@Qt_6 6.6.1
 _ZN26QItemModelScatterDataProxy22xPosRoleReplaceChangedERK7QString@Qt_6 6.6.1
 _ZN26QItemModelScatterDataProxy22yPosRolePatternChangedERK18QRegularExpression@Qt_6 6.6.1
 _ZN26QItemModelScatterDataProxy22yPosRoleReplaceChangedERK7QString@Qt_6 6.6.1
 _ZN26QItemModelScatterDataProxy22zPosRolePatternChangedERK18QRegularExpression@Qt_6 6.6.1
 _ZN26QItemModelScatterDataProxy22zPosRoleReplaceChangedERK7QString@Qt_6 6.6.1
 _ZN26QItemModelScatterDataProxy26rotationRolePatternChangedERK18QRegularExpression@Qt_6 6.6.1
 _ZN26QItemModelScatterDataProxy26rotationRoleReplaceChangedERK7QString@Qt_6 6.6.1
 _ZN26QItemModelScatterDataProxy4dptrEv@Qt_6 6.6.1
 _ZN26QItemModelScatterDataProxy5remapERK7QStringS2_S2_S2_@Qt_6 6.6.1
 _ZN26QItemModelScatterDataProxyC1EP18QAbstractItemModelP7QObject@Qt_6 6.6.1
 _ZN26QItemModelScatterDataProxyC1EP18QAbstractItemModelRK7QStringS4_S4_P7QObject@Qt_6 6.6.1
 _ZN26QItemModelScatterDataProxyC1EP18QAbstractItemModelRK7QStringS4_S4_S4_P7QObject@Qt_6 6.6.1
 _ZN26QItemModelScatterDataProxyC1EP7QObject@Qt_6 6.6.1
 _ZN26QItemModelScatterDataProxyC2EP18QAbstractItemModelP7QObject@Qt_6 6.6.1
 _ZN26QItemModelScatterDataProxyC2EP18QAbstractItemModelRK7QStringS4_S4_P7QObject@Qt_6 6.6.1
 _ZN26QItemModelScatterDataProxyC2EP18QAbstractItemModelRK7QStringS4_S4_S4_P7QObject@Qt_6 6.6.1
 _ZN26QItemModelScatterDataProxyC2EP7QObject@Qt_6 6.6.1
 _ZN26QItemModelScatterDataProxyD0Ev@Qt_6 6.6.1
 _ZN26QItemModelScatterDataProxyD1Ev@Qt_6 6.6.1
 _ZN26QItemModelScatterDataProxyD2Ev@Qt_6 6.6.1
 _ZN26QItemModelSurfaceDataProxy10setRowRoleERK7QString@Qt_6 6.6.1
 _ZN26QItemModelSurfaceDataProxy11qt_metacallEN11QMetaObject4CallEiPPv@Qt_6 6.6.1
 _ZN26QItemModelSurfaceDataProxy11qt_metacastEPKc@Qt_6 6.6.1
 _ZN26QItemModelSurfaceDataProxy11setXPosRoleERK7QString@Qt_6 6.6.1
 _ZN26QItemModelSurfaceDataProxy11setYPosRoleERK7QString@Qt_6 6.6.1
 _ZN26QItemModelSurfaceDataProxy11setZPosRoleERK7QString@Qt_6 6.6.1
 _ZN26QItemModelSurfaceDataProxy12setItemModelEP18QAbstractItemModel@Qt_6 6.6.1
 _ZN26QItemModelSurfaceDataProxy13setColumnRoleERK7QString@Qt_6 6.6.1
 _ZN26QItemModelSurfaceDataProxy14rowRoleChangedERK7QString@Qt_6 6.6.1
 _ZN26QItemModelSurfaceDataProxy15xPosRoleChangedERK7QString@Qt_6 6.6.1
 _ZN26QItemModelSurfaceDataProxy15yPosRoleChangedERK7QString@Qt_6 6.6.1
 _ZN26QItemModelSurfaceDataProxy15zPosRoleChangedERK7QString@Qt_6 6.6.1
 _ZN26QItemModelSurfaceDataProxy16itemModelChangedEPK18QAbstractItemModel@Qt_6 6.6.1
 _ZN26QItemModelSurfaceDataProxy16rowCategoryIndexERK7QString@Qt_6 6.6.1
 _ZN26QItemModelSurfaceDataProxy16setRowCategoriesERK5QListI7QStringE@Qt_6 6.6.1
 _ZN26QItemModelSurfaceDataProxy16staticMetaObjectE@Qt_6 6.6.1
 _ZN26QItemModelSurfaceDataProxy17columnRoleChangedERK7QString@Qt_6 6.6.1
 _ZN26QItemModelSurfaceDataProxy17setRowRolePatternERK18QRegularExpression@Qt_6 6.6.1
 _ZN26QItemModelSurfaceDataProxy17setRowRoleReplaceERK7QString@Qt_6 6.6.1
 _ZN26QItemModelSurfaceDataProxy18setXPosRolePatternERK18QRegularExpression@Qt_6 6.6.1
 _ZN26QItemModelSurfaceDataProxy18setXPosRoleReplaceERK7QString@Qt_6 6.6.1
 _ZN26QItemModelSurfaceDataProxy18setYPosRolePatternERK18QRegularExpression@Qt_6 6.6.1
 _ZN26QItemModelSurfaceDataProxy18setYPosRoleReplaceERK7QString@Qt_6 6.6.1
 _ZN26QItemModelSurfaceDataProxy18setZPosRolePatternERK18QRegularExpression@Qt_6 6.6.1
 _ZN26QItemModelSurfaceDataProxy18setZPosRoleReplaceERK7QString@Qt_6 6.6.1
 _ZN26QItemModelSurfaceDataProxy19columnCategoryIndexERK7QString@Qt_6 6.6.1
 _ZN26QItemModelSurfaceDataProxy19setColumnCategoriesERK5QListI7QStringE@Qt_6 6.6.1
 _ZN26QItemModelSurfaceDataProxy20rowCategoriesChangedEv@Qt_6 6.6.1
 _ZN26QItemModelSurfaceDataProxy20setAutoRowCategoriesEb@Qt_6 6.6.1
 _ZN26QItemModelSurfaceDataProxy20setColumnRolePatternERK18QRegularExpression@Qt_6 6.6.1
 _ZN26QItemModelSurfaceDataProxy20setColumnRoleReplaceERK7QString@Qt_6 6.6.1
 _ZN26QItemModelSurfaceDataProxy21rowRolePatternChangedERK18QRegularExpression@Qt_6 6.6.1
 _ZN26QItemModelSurfaceDataProxy21rowRoleReplaceChangedERK7QString@Qt_6 6.6.1
 _ZN26QItemModelSurfaceDataProxy21setMultiMatchBehaviorENS_18MultiMatchBehaviorE@Qt_6 6.6.1
 _ZN26QItemModelSurfaceDataProxy21setUseModelCategoriesEb@Qt_6 6.6.1
 _ZN26QItemModelSurfaceDataProxy22xPosRolePatternChangedERK18QRegularExpression@Qt_6 6.6.1
 _ZN26QItemModelSurfaceDataProxy22xPosRoleReplaceChangedERK7QString@Qt_6 6.6.1
 _ZN26QItemModelSurfaceDataProxy22yPosRolePatternChangedERK18QRegularExpression@Qt_6 6.6.1
 _ZN26QItemModelSurfaceDataProxy22yPosRoleReplaceChangedERK7QString@Qt_6 6.6.1
 _ZN26QItemModelSurfaceDataProxy22zPosRolePatternChangedERK18QRegularExpression@Qt_6 6.6.1
 _ZN26QItemModelSurfaceDataProxy22zPosRoleReplaceChangedERK7QString@Qt_6 6.6.1
 _ZN26QItemModelSurfaceDataProxy23columnCategoriesChangedEv@Qt_6 6.6.1
 _ZN26QItemModelSurfaceDataProxy23setAutoColumnCategoriesEb@Qt_6 6.6.1
 _ZN26QItemModelSurfaceDataProxy24autoRowCategoriesChangedEb@Qt_6 6.6.1
 _ZN26QItemModelSurfaceDataProxy24columnRolePatternChangedERK18QRegularExpression@Qt_6 6.6.1
 _ZN26QItemModelSurfaceDataProxy24columnRoleReplaceChangedERK7QString@Qt_6 6.6.1
 _ZN26QItemModelSurfaceDataProxy25multiMatchBehaviorChangedENS_18MultiMatchBehaviorE@Qt_6 6.6.1
 _ZN26QItemModelSurfaceDataProxy25useModelCategoriesChangedEb@Qt_6 6.6.1
 _ZN26QItemModelSurfaceDataProxy27autoColumnCategoriesChangedEb@Qt_6 6.6.1
 _ZN26QItemModelSurfaceDataProxy4dptrEv@Qt_6 6.6.1
 _ZN26QItemModelSurfaceDataProxy5remapERK7QStringS2_S2_S2_S2_RK5QListIS0_ES6_@Qt_6 6.6.1
 _ZN26QItemModelSurfaceDataProxyC1EP18QAbstractItemModelP7QObject@Qt_6 6.6.1
 _ZN26QItemModelSurfaceDataProxyC1EP18QAbstractItemModelRK7QStringP7QObject@Qt_6 6.6.1
 _ZN26QItemModelSurfaceDataProxyC1EP18QAbstractItemModelRK7QStringS4_S4_P7QObject@Qt_6 6.6.1
 _ZN26QItemModelSurfaceDataProxyC1EP18QAbstractItemModelRK7QStringS4_S4_RK5QListIS2_ES8_P7QObject@Qt_6 6.6.1
 _ZN26QItemModelSurfaceDataProxyC1EP18QAbstractItemModelRK7QStringS4_S4_S4_S4_P7QObject@Qt_6 6.6.1
 _ZN26QItemModelSurfaceDataProxyC1EP18QAbstractItemModelRK7QStringS4_S4_S4_S4_RK5QListIS2_ES8_P7QObject@Qt_6 6.6.1
 _ZN26QItemModelSurfaceDataProxyC1EP7QObject@Qt_6 6.6.1
 _ZN26QItemModelSurfaceDataProxyC2EP18QAbstractItemModelP7QObject@Qt_6 6.6.1
 _ZN26QItemModelSurfaceDataProxyC2EP18QAbstractItemModelRK7QStringP7QObject@Qt_6 6.6.1
 _ZN26QItemModelSurfaceDataProxyC2EP18QAbstractItemModelRK7QStringS4_S4_P7QObject@Qt_6 6.6.1
 _ZN26QItemModelSurfaceDataProxyC2EP18QAbstractItemModelRK7QStringS4_S4_RK5QListIS2_ES8_P7QObject@Qt_6 6.6.1
 _ZN26QItemModelSurfaceDataProxyC2EP18QAbstractItemModelRK7QStringS4_S4_S4_S4_P7QObject@Qt_6 6.6.1
 _ZN26QItemModelSurfaceDataProxyC2EP18QAbstractItemModelRK7QStringS4_S4_S4_S4_RK5QListIS2_ES8_P7QObject@Qt_6 6.6.1
 _ZN26QItemModelSurfaceDataProxyC2EP7QObject@Qt_6 6.6.1
 _ZN26QItemModelSurfaceDataProxyD0Ev@Qt_6 6.6.1
 _ZN26QItemModelSurfaceDataProxyD1Ev@Qt_6 6.6.1
 _ZN26QItemModelSurfaceDataProxyD2Ev@Qt_6 6.6.1
 _ZN28AbstractDeclarativeInterfaceD1Ev@Qt_6_PRIVATE_API 6.6.1
 _ZN28AbstractDeclarativeInterfaceD2Ev@Qt_6_PRIVATE_API 6.6.1
 _ZN7Q3DBars10setRowAxisEP15QCategory3DAxis@Qt_6 6.6.1
 _ZN7Q3DBars11qt_metacallEN11QMetaObject4CallEiPPv@Qt_6 6.6.1
 _ZN7Q3DBars11qt_metacastEPKc@Qt_6 6.6.1
 _ZN7Q3DBars11releaseAxisEP15QAbstract3DAxis@Qt_6 6.6.1
 _ZN7Q3DBars12insertSeriesEiP12QBar3DSeries@Qt_6 6.6.1
 _ZN7Q3DBars12removeSeriesEP12QBar3DSeries@Qt_6 6.6.1
 _ZN7Q3DBars12setValueAxisEP12QValue3DAxis@Qt_6 6.6.1
 _ZN7Q3DBars13setBarSpacingERK6QSizeF@Qt_6 6.6.1
 _ZN7Q3DBars13setColumnAxisEP15QCategory3DAxis@Qt_6 6.6.1
 _ZN7Q3DBars13setFloorLevelEf@Qt_6 6.6.1
 _ZN7Q3DBars14rowAxisChangedEP15QCategory3DAxis@Qt_6 6.6.1
 _ZN7Q3DBars15setBarThicknessEf@Qt_6 6.6.1
 _ZN7Q3DBars16setPrimarySeriesEP12QBar3DSeries@Qt_6 6.6.1
 _ZN7Q3DBars16staticMetaObjectE@Qt_6 6.6.1
 _ZN7Q3DBars16valueAxisChangedEP12QValue3DAxis@Qt_6 6.6.1
 _ZN7Q3DBars17barSpacingChangedERK6QSizeF@Qt_6 6.6.1
 _ZN7Q3DBars17columnAxisChangedEP15QCategory3DAxis@Qt_6 6.6.1
 _ZN7Q3DBars17floorLevelChangedEf@Qt_6 6.6.1
 _ZN7Q3DBars18setBarSeriesMarginERK6QSizeF@Qt_6 6.6.1
 _ZN7Q3DBars19barThicknessChangedEf@Qt_6 6.6.1
 _ZN7Q3DBars20primarySeriesChangedEP12QBar3DSeries@Qt_6 6.6.1
 _ZN7Q3DBars21selectedSeriesChangedEP12QBar3DSeries@Qt_6 6.6.1
 _ZN7Q3DBars21setBarSpacingRelativeEb@Qt_6 6.6.1
 _ZN7Q3DBars21setMultiSeriesUniformEb@Qt_6 6.6.1
 _ZN7Q3DBars22barSeriesMarginChangedERK6QSizeF@Qt_6 6.6.1
 _ZN7Q3DBars25barSpacingRelativeChangedEb@Qt_6 6.6.1
 _ZN7Q3DBars25multiSeriesUniformChangedEb@Qt_6 6.6.1
 _ZN7Q3DBars4dptrEv@Qt_6 6.6.1
 _ZN7Q3DBars7addAxisEP15QAbstract3DAxis@Qt_6 6.6.1
 _ZN7Q3DBars9addSeriesEP12QBar3DSeries@Qt_6 6.6.1
 _ZN7Q3DBarsC1EPK14QSurfaceFormatP7QWindow@Qt_6 6.6.1
 _ZN7Q3DBarsC2EPK14QSurfaceFormatP7QWindow@Qt_6 6.6.1
 _ZN7Q3DBarsD0Ev@Qt_6 6.6.1
 _ZN7Q3DBarsD1Ev@Qt_6 6.6.1
 _ZN7Q3DBarsD2Ev@Qt_6 6.6.1
 _ZN8Q3DLight11qt_metacallEN11QMetaObject4CallEiPPv@Qt_6 6.6.1
 _ZN8Q3DLight11qt_metacastEPKc@Qt_6 6.6.1
 _ZN8Q3DLight14isAutoPositionEv@Qt_6 6.6.1
 _ZN8Q3DLight15setAutoPositionEb@Qt_6 6.6.1
 _ZN8Q3DLight16staticMetaObjectE@Qt_6 6.6.1
 _ZN8Q3DLight19autoPositionChangedEb@Qt_6 6.6.1
 _ZN8Q3DLightC1EP7QObject@Qt_6 6.6.1
 _ZN8Q3DLightC2EP7QObject@Qt_6 6.6.1
 _ZN8Q3DLightD0Ev@Qt_6 6.6.1
 _ZN8Q3DLightD1Ev@Qt_6 6.6.1
 _ZN8Q3DLightD2Ev@Qt_6 6.6.1
 _ZN8Q3DScene11qt_metacallEN11QMetaObject4CallEiPPv@Qt_6 6.6.1
 _ZN8Q3DScene11qt_metacastEPKc@Qt_6 6.6.1
 _ZN8Q3DScene14setActiveLightEP8Q3DLight@Qt_6 6.6.1
 _ZN8Q3DScene15setActiveCameraEP9Q3DCamera@Qt_6 6.6.1
 _ZN8Q3DScene15viewportChangedERK5QRect@Qt_6 6.6.1
 _ZN8Q3DScene16setSlicingActiveEb@Qt_6 6.6.1
 _ZN8Q3DScene16staticMetaObjectE@Qt_6 6.6.1
 _ZN8Q3DScene18activeLightChangedEP8Q3DLight@Qt_6 6.6.1
 _ZN8Q3DScene19activeCameraChangedEP9Q3DCamera@Qt_6 6.6.1
 _ZN8Q3DScene19setDevicePixelRatioEf@Qt_6 6.6.1
 _ZN8Q3DScene20slicingActiveChangedEb@Qt_6 6.6.1
 _ZN8Q3DScene21invalidSelectionPointEv@Qt_6 6.6.1
 _ZN8Q3DScene21setGraphPositionQueryERK6QPoint@Qt_6 6.6.1
 _ZN8Q3DScene21setPrimarySubViewportERK5QRect@Qt_6 6.6.1
 _ZN8Q3DScene23devicePixelRatioChangedEf@Qt_6 6.6.1
 _ZN8Q3DScene23isPointInPrimarySubViewERK6QPoint@Qt_6 6.6.1
 _ZN8Q3DScene23setSecondarySubViewportERK5QRect@Qt_6 6.6.1
 _ZN8Q3DScene24setSecondarySubviewOnTopEb@Qt_6 6.6.1
 _ZN8Q3DScene25graphPositionQueryChangedERK6QPoint@Qt_6 6.6.1
 _ZN8Q3DScene25isPointInSecondarySubViewERK6QPoint@Qt_6 6.6.1
 _ZN8Q3DScene25primarySubViewportChangedERK5QRect@Qt_6 6.6.1
 _ZN8Q3DScene25setSelectionQueryPositionERK6QPoint@Qt_6 6.6.1
 _ZN8Q3DScene27secondarySubViewportChangedERK5QRect@Qt_6 6.6.1
 _ZN8Q3DScene28secondarySubviewOnTopChangedEb@Qt_6 6.6.1
 _ZN8Q3DScene29selectionQueryPositionChangedERK6QPoint@Qt_6 6.6.1
 _ZN8Q3DSceneC1EP7QObject@Qt_6 6.6.1
 _ZN8Q3DSceneC2EP7QObject@Qt_6 6.6.1
 _ZN8Q3DSceneD0Ev@Qt_6 6.6.1
 _ZN8Q3DSceneD1Ev@Qt_6 6.6.1
 _ZN8Q3DSceneD2Ev@Qt_6 6.6.1
 _ZN8Q3DTheme11fontChangedERK5QFont@Qt_6 6.6.1
 _ZN8Q3DTheme11qt_metacallEN11QMetaObject4CallEiPPv@Qt_6 6.6.1
 _ZN8Q3DTheme11qt_metacastEPKc@Qt_6 6.6.1
 _ZN8Q3DTheme11typeChangedENS_5ThemeE@Qt_6 6.6.1
 _ZN8Q3DTheme13setBaseColorsERK5QListI6QColorE@Qt_6 6.6.1
 _ZN8Q3DTheme13setColorStyleENS_10ColorStyleE@Qt_6 6.6.1
 _ZN8Q3DTheme13setLightColorERK6QColor@Qt_6 6.6.1
 _ZN8Q3DTheme14setGridEnabledEb@Qt_6 6.6.1
 _ZN8Q3DTheme14setWindowColorERK6QColor@Qt_6 6.6.1
 _ZN8Q3DTheme16setBaseGradientsERK5QListI15QLinearGradientE@Qt_6 6.6.1
 _ZN8Q3DTheme16setGridLineColorERK6QColor@Qt_6 6.6.1
 _ZN8Q3DTheme16setLightStrengthEf@Qt_6 6.6.1
 _ZN8Q3DTheme16staticMetaObjectE@Qt_6 6.6.1
 _ZN8Q3DTheme17baseColorsChangedERK5QListI6QColorE@Qt_6 6.6.1
 _ZN8Q3DTheme17colorStyleChangedENS_10ColorStyleE@Qt_6 6.6.1
 _ZN8Q3DTheme17lightColorChangedERK6QColor@Qt_6 6.6.1
 _ZN8Q3DTheme17setLabelTextColorERK6QColor@Qt_6 6.6.1
 _ZN8Q3DTheme18gridEnabledChangedEb@Qt_6 6.6.1
 _ZN8Q3DTheme18setBackgroundColorERK6QColor@Qt_6 6.6.1
 _ZN8Q3DTheme18windowColorChangedERK6QColor@Qt_6 6.6.1
 _ZN8Q3DTheme20baseGradientsChangedERK5QListI15QLinearGradientE@Qt_6 6.6.1
 _ZN8Q3DTheme20gridLineColorChangedERK6QColor@Qt_6 6.6.1
 _ZN8Q3DTheme20lightStrengthChangedEf@Qt_6 6.6.1
 _ZN8Q3DTheme20setBackgroundEnabledEb@Qt_6 6.6.1
 _ZN8Q3DTheme21labelTextColorChangedERK6QColor@Qt_6 6.6.1
 _ZN8Q3DTheme21setLabelBorderEnabledEb@Qt_6 6.6.1
 _ZN8Q3DTheme22backgroundColorChangedERK6QColor@Qt_6 6.6.1
 _ZN8Q3DTheme22setMultiHighlightColorERK6QColor@Qt_6 6.6.1
 _ZN8Q3DTheme23setAmbientLightStrengthEf@Qt_6 6.6.1
 _ZN8Q3DTheme23setLabelBackgroundColorERK6QColor@Qt_6 6.6.1
 _ZN8Q3DTheme23setSingleHighlightColorERK6QColor@Qt_6 6.6.1
 _ZN8Q3DTheme24backgroundEnabledChangedEb@Qt_6 6.6.1
 _ZN8Q3DTheme25labelBorderEnabledChangedEb@Qt_6 6.6.1
 _ZN8Q3DTheme25setHighlightLightStrengthEf@Qt_6 6.6.1
 _ZN8Q3DTheme25setLabelBackgroundEnabledEb@Qt_6 6.6.1
 _ZN8Q3DTheme25setMultiHighlightGradientERK15QLinearGradient@Qt_6 6.6.1
 _ZN8Q3DTheme26multiHighlightColorChangedERK6QColor@Qt_6 6.6.1
 _ZN8Q3DTheme26setSingleHighlightGradientERK15QLinearGradient@Qt_6 6.6.1
 _ZN8Q3DTheme27ambientLightStrengthChangedEf@Qt_6 6.6.1
 _ZN8Q3DTheme27labelBackgroundColorChangedERK6QColor@Qt_6 6.6.1
 _ZN8Q3DTheme27singleHighlightColorChangedERK6QColor@Qt_6 6.6.1
 _ZN8Q3DTheme29highlightLightStrengthChangedEf@Qt_6 6.6.1
 _ZN8Q3DTheme29labelBackgroundEnabledChangedEb@Qt_6 6.6.1
 _ZN8Q3DTheme29multiHighlightGradientChangedERK15QLinearGradient@Qt_6 6.6.1
 _ZN8Q3DTheme30singleHighlightGradientChangedERK15QLinearGradient@Qt_6 6.6.1
 _ZN8Q3DTheme7setFontERK5QFont@Qt_6 6.6.1
 _ZN8Q3DTheme7setTypeENS_5ThemeE@Qt_6 6.6.1
 _ZN8Q3DThemeC1ENS_5ThemeEP7QObject@Qt_6 6.6.1
 _ZN8Q3DThemeC1EP15Q3DThemePrivateNS_5ThemeEP7QObject@Qt_6_PRIVATE_API 6.6.1
 _ZN8Q3DThemeC1EP7QObject@Qt_6 6.6.1
 _ZN8Q3DThemeC2ENS_5ThemeEP7QObject@Qt_6 6.6.1
 _ZN8Q3DThemeC2EP15Q3DThemePrivateNS_5ThemeEP7QObject@Qt_6_PRIVATE_API 6.6.1
 _ZN8Q3DThemeC2EP7QObject@Qt_6 6.6.1
 _ZN8Q3DThemeD0Ev@Qt_6 6.6.1
 _ZN8Q3DThemeD1Ev@Qt_6 6.6.1
 _ZN8Q3DThemeD2Ev@Qt_6 6.6.1
 _ZN9Q3DCamera11qt_metacallEN11QMetaObject4CallEiPPv@Qt_6 6.6.1
 _ZN9Q3DCamera11qt_metacastEPKc@Qt_6 6.6.1
 _ZN9Q3DCamera12setXRotationEf@Qt_6 6.6.1
 _ZN9Q3DCamera12setYRotationEf@Qt_6 6.6.1
 _ZN9Q3DCamera12setZoomLevelEf@Qt_6 6.6.1
 _ZN9Q3DCamera13targetChangedERK9QVector3D@Qt_6 6.6.1
 _ZN9Q3DCamera14copyValuesFromERK9Q3DObject@Qt_6 6.6.1
 _ZN9Q3DCamera15setCameraPresetENS_12CameraPresetE@Qt_6 6.6.1
 _ZN9Q3DCamera15setMaxZoomLevelEf@Qt_6 6.6.1
 _ZN9Q3DCamera15setMinZoomLevelEf@Qt_6 6.6.1
 _ZN9Q3DCamera16setWrapXRotationEb@Qt_6 6.6.1
 _ZN9Q3DCamera16setWrapYRotationEb@Qt_6 6.6.1
 _ZN9Q3DCamera16staticMetaObjectE@Qt_6 6.6.1
 _ZN9Q3DCamera16xRotationChangedEf@Qt_6 6.6.1
 _ZN9Q3DCamera16yRotationChangedEf@Qt_6 6.6.1
 _ZN9Q3DCamera16zoomLevelChangedEf@Qt_6 6.6.1
 _ZN9Q3DCamera17setCameraPositionEfff@Qt_6 6.6.1
 _ZN9Q3DCamera19cameraPresetChangedENS_12CameraPresetE@Qt_6 6.6.1
 _ZN9Q3DCamera19maxZoomLevelChangedEf@Qt_6 6.6.1
 _ZN9Q3DCamera19minZoomLevelChangedEf@Qt_6 6.6.1
 _ZN9Q3DCamera20wrapXRotationChangedEb@Qt_6 6.6.1
 _ZN9Q3DCamera20wrapYRotationChangedEb@Qt_6 6.6.1
 _ZN9Q3DCamera9setTargetERK9QVector3D@Qt_6 6.6.1
 _ZN9Q3DCameraC1EP7QObject@Qt_6 6.6.1
 _ZN9Q3DCameraC2EP7QObject@Qt_6 6.6.1
 _ZN9Q3DCameraD0Ev@Qt_6 6.6.1
 _ZN9Q3DCameraD1Ev@Qt_6 6.6.1
 _ZN9Q3DCameraD2Ev@Qt_6 6.6.1
 _ZN9Q3DObject11parentSceneEv@Qt_6 6.6.1
 _ZN9Q3DObject11qt_metacallEN11QMetaObject4CallEiPPv@Qt_6 6.6.1
 _ZN9Q3DObject11qt_metacastEPKc@Qt_6 6.6.1
 _ZN9Q3DObject11setPositionERK9QVector3D@Qt_6 6.6.1
 _ZN9Q3DObject14copyValuesFromERKS_@Qt_6 6.6.1
 _ZN9Q3DObject15positionChangedERK9QVector3D@Qt_6 6.6.1
 _ZN9Q3DObject16staticMetaObjectE@Qt_6 6.6.1
 _ZN9Q3DObject8setDirtyEb@Qt_6 6.6.1
 _ZN9Q3DObjectC1EP7QObject@Qt_6 6.6.1
 _ZN9Q3DObjectC2EP7QObject@Qt_6 6.6.1
 _ZN9Q3DObjectD0Ev@Qt_6 6.6.1
 _ZN9Q3DObjectD1Ev@Qt_6 6.6.1
 _ZN9Q3DObjectD2Ev@Qt_6 6.6.1
 _ZNK10Q3DScatter10metaObjectEv@Qt_6 6.6.1
 _ZNK10Q3DScatter10seriesListEv@Qt_6 6.6.1
 _ZNK10Q3DScatter14selectedSeriesEv@Qt_6 6.6.1
 _ZNK10Q3DScatter4axesEv@Qt_6 6.6.1
 _ZNK10Q3DScatter5axisXEv@Qt_6 6.6.1
 _ZNK10Q3DScatter5axisYEv@Qt_6 6.6.1
 _ZNK10Q3DScatter5axisZEv@Qt_6 6.6.1
 _ZNK10Q3DScatter5dptrcEv@Qt_6 6.6.1
 _ZNK10Q3DSurface10metaObjectEv@Qt_6 6.6.1
 _ZNK10Q3DSurface10seriesListEv@Qt_6 6.6.1
 _ZNK10Q3DSurface14selectedSeriesEv@Qt_6 6.6.1
 _ZNK10Q3DSurface18flipHorizontalGridEv@Qt_6 6.6.1
 _ZNK10Q3DSurface4axesEv@Qt_6 6.6.1
 _ZNK10Q3DSurface5axisXEv@Qt_6 6.6.1
 _ZNK10Q3DSurface5axisYEv@Qt_6 6.6.1
 _ZNK10Q3DSurface5axisZEv@Qt_6 6.6.1
 _ZNK10Q3DSurface5dptrcEv@Qt_6 6.6.1
 _ZNK12QBar3DSeries10metaObjectEv@Qt_6 6.6.1
 _ZNK12QBar3DSeries11selectedBarEv@Qt_6 6.6.1
 _ZNK12QBar3DSeries5dptrcEv@Qt_6 6.6.1
 _ZNK12QBar3DSeries9dataProxyEv@Qt_6 6.6.1
 _ZNK12QBar3DSeries9meshAngleEv@Qt_6 6.6.1
 _ZNK12QBar3DSeries9rowColorsEv@Qt_6 6.6.1
 _ZNK12QValue3DAxis10metaObjectEv@Qt_6 6.6.1
 _ZNK12QValue3DAxis11labelFormatEv@Qt_6 6.6.1
 _ZNK12QValue3DAxis12segmentCountEv@Qt_6 6.6.1
 _ZNK12QValue3DAxis15subSegmentCountEv@Qt_6 6.6.1
 _ZNK12QValue3DAxis5dptrcEv@Qt_6 6.6.1
 _ZNK12QValue3DAxis8reversedEv@Qt_6 6.6.1
 _ZNK12QValue3DAxis9formatterEv@Qt_6 6.6.1
 _ZNK13QBarDataProxy10metaObjectEv@Qt_6 6.6.1
 _ZNK13QBarDataProxy12columnLabelsEv@Qt_6 6.6.1
 _ZNK13QBarDataProxy5arrayEv@Qt_6 6.6.1
 _ZNK13QBarDataProxy5dptrcEv@Qt_6 6.6.1
 _ZNK13QBarDataProxy5rowAtEi@Qt_6 6.6.1
 _ZNK13QBarDataProxy6itemAtERK6QPoint@Qt_6 6.6.1
 _ZNK13QBarDataProxy6itemAtEii@Qt_6 6.6.1
 _ZNK13QBarDataProxy6seriesEv@Qt_6 6.6.1
 _ZNK13QBarDataProxy8rowCountEv@Qt_6 6.6.1
 _ZNK13QBarDataProxy9rowLabelsEv@Qt_6 6.6.1
 _ZNK13QCustom3DItem10metaObjectEv@Qt_6 6.6.1
 _ZNK13QCustom3DItem11textureFileEv@Qt_6 6.6.1
 _ZNK13QCustom3DItem15isShadowCastingEv@Qt_6 6.6.1
 _ZNK13QCustom3DItem17isScalingAbsoluteEv@Qt_6 6.6.1
 _ZNK13QCustom3DItem18isPositionAbsoluteEv@Qt_6 6.6.1
 _ZNK13QCustom3DItem7scalingEv@Qt_6 6.6.1
 _ZNK13QCustom3DItem8meshFileEv@Qt_6 6.6.1
 _ZNK13QCustom3DItem8positionEv@Qt_6 6.6.1
 _ZNK13QCustom3DItem9isVisibleEv@Qt_6 6.6.1
 _ZNK14Bars3DRenderer10metaObjectEv@Qt_6_PRIVATE_API 6.6.1
 _ZNK14QCustom3DLabel10metaObjectEv@Qt_6 6.6.1
 _ZNK14QCustom3DLabel14isFacingCameraEv@Qt_6 6.6.1
 _ZNK14QCustom3DLabel15backgroundColorEv@Qt_6 6.6.1
 _ZNK14QCustom3DLabel15isBorderEnabledEv@Qt_6 6.6.1
 _ZNK14QCustom3DLabel19isBackgroundEnabledEv@Qt_6 6.6.1
 _ZNK14QCustom3DLabel4fontEv@Qt_6 6.6.1
 _ZNK14QCustom3DLabel4textEv@Qt_6 6.6.1
 _ZNK14QCustom3DLabel5dptrcEv@Qt_6 6.6.1
 _ZNK14QCustom3DLabel9textColorEv@Qt_6 6.6.1
 _ZNK15Q3DInputHandler10metaObjectEv@Qt_6 6.6.1
 _ZNK15Q3DInputHandler13isZoomEnabledEv@Qt_6 6.6.1
 _ZNK15Q3DInputHandler17isRotationEnabledEv@Qt_6 6.6.1
 _ZNK15Q3DInputHandler18isSelectionEnabledEv@Qt_6 6.6.1
 _ZNK15Q3DInputHandler21isZoomAtTargetEnabledEv@Qt_6 6.6.1
 _ZNK15Q3DScenePrivate10metaObjectEv@Qt_6_PRIVATE_API 6.6.1
 _ZNK15Q3DScenePrivate10windowSizeEv@Qt_6_PRIVATE_API 6.6.1
 _ZNK15Q3DScenePrivate8isInAreaERK5QRectii@Qt_6_PRIVATE_API 6.6.1
 _ZNK15Q3DThemePrivate10metaObjectEv@Qt_6_PRIVATE_API 6.6.1
 _ZNK15QAbstract3DAxis10metaObjectEv@Qt_6 6.6.1
 _ZNK15QAbstract3DAxis11orientationEv@Qt_6 6.6.1
 _ZNK15QAbstract3DAxis12isTitleFixedEv@Qt_6 6.6.1
 _ZNK15QAbstract3DAxis14isTitleVisibleEv@Qt_6 6.6.1
 _ZNK15QAbstract3DAxis17isAutoAdjustRangeEv@Qt_6 6.6.1
 _ZNK15QAbstract3DAxis17labelAutoRotationEv@Qt_6 6.6.1
 _ZNK15QAbstract3DAxis3maxEv@Qt_6 6.6.1
 _ZNK15QAbstract3DAxis3minEv@Qt_6 6.6.1
 _ZNK15QAbstract3DAxis4typeEv@Qt_6 6.6.1
 _ZNK15QAbstract3DAxis5titleEv@Qt_6 6.6.1
 _ZNK15QAbstract3DAxis6labelsEv@Qt_6 6.6.1
 _ZNK15QCategory3DAxis10metaObjectEv@Qt_6 6.6.1
 _ZNK15QCategory3DAxis6labelsEv@Qt_6 6.6.1
 _ZNK15QCustom3DVolume10colorTableEv@Qt_6 6.6.1
 _ZNK15QCustom3DVolume10drawSlicesEv@Qt_6 6.6.1
 _ZNK15QCustom3DVolume10metaObjectEv@Qt_6 6.6.1
 _ZNK15QCustom3DVolume11sliceIndexXEv@Qt_6 6.6.1
 _ZNK15QCustom3DVolume11sliceIndexYEv@Qt_6 6.6.1
 _ZNK15QCustom3DVolume11sliceIndexZEv@Qt_6 6.6.1
 _ZNK15QCustom3DVolume11textureDataEv@Qt_6 6.6.1
 _ZNK15QCustom3DVolume12textureDepthEv@Qt_6 6.6.1
 _ZNK15QCustom3DVolume12textureWidthEv@Qt_6 6.6.1
 _ZNK15QCustom3DVolume13textureFormatEv@Qt_6 6.6.1
 _ZNK15QCustom3DVolume13textureHeightEv@Qt_6 6.6.1
 _ZNK15QCustom3DVolume14sliceFrameGapsEv@Qt_6 6.6.1
 _ZNK15QCustom3DVolume15alphaMultiplierEv@Qt_6 6.6.1
 _ZNK15QCustom3DVolume15drawSliceFramesEv@Qt_6 6.6.1
 _ZNK15QCustom3DVolume15preserveOpacityEv@Qt_6 6.6.1
 _ZNK15QCustom3DVolume15sliceFrameColorEv@Qt_6 6.6.1
 _ZNK15QCustom3DVolume16sliceFrameWidthsEv@Qt_6 6.6.1
 _ZNK15QCustom3DVolume16textureDataWidthEv@Qt_6 6.6.1
 _ZNK15QCustom3DVolume16useHighDefShaderEv@Qt_6 6.6.1
 _ZNK15QCustom3DVolume21sliceFrameThicknessesEv@Qt_6 6.6.1
 _ZNK15QCustom3DVolume5dptrcEv@Qt_6 6.6.1
 _ZNK16Bars3DController10floorLevelEv@Qt_6_PRIVATE_API 6.6.1
 _ZNK16Bars3DController10metaObjectEv@Qt_6_PRIVATE_API 6.6.1
 _ZNK16Bars3DController13primarySeriesEv@Qt_6_PRIVATE_API 6.6.1
 _ZNK16Bars3DController18multiSeriesScalingEv@Qt_6_PRIVATE_API 6.6.1
 _ZNK16QAbstract3DGraph10currentFpsEv@Qt_6 6.6.1
 _ZNK16QAbstract3DGraph10hasContextEv@Qt_6 6.6.1
 _ZNK16QAbstract3DGraph10measureFpsEv@Qt_6 6.6.1
 _ZNK16QAbstract3DGraph10metaObjectEv@Qt_6 6.6.1
 _ZNK16QAbstract3DGraph11activeThemeEv@Qt_6 6.6.1
 _ZNK16QAbstract3DGraph11aspectRatioEv@Qt_6 6.6.1
 _ZNK16QAbstract3DGraph11customItemsEv@Qt_6 6.6.1
 _ZNK16QAbstract3DGraph12isReflectionEv@Qt_6 6.6.1
 _ZNK16QAbstract3DGraph12reflectivityEv@Qt_6 6.6.1
 _ZNK16QAbstract3DGraph12selectedAxisEv@Qt_6 6.6.1
 _ZNK16QAbstract3DGraph13inputHandlersEv@Qt_6 6.6.1
 _ZNK16QAbstract3DGraph13selectionModeEv@Qt_6 6.6.1
 _ZNK16QAbstract3DGraph13shadowQualityEv@Qt_6 6.6.1
 _ZNK16QAbstract3DGraph15selectedElementEv@Qt_6 6.6.1
 _ZNK16QAbstract3DGraph16shadowsSupportedEv@Qt_6 6.6.1
 _ZNK16QAbstract3DGraph17isOrthoProjectionEv@Qt_6 6.6.1
 _ZNK16QAbstract3DGraph17optimizationHintsEv@Qt_6 6.6.1
 _ZNK16QAbstract3DGraph17radialLabelOffsetEv@Qt_6 6.6.1
 _ZNK16QAbstract3DGraph18activeInputHandlerEv@Qt_6 6.6.1
 _ZNK16QAbstract3DGraph18selectedCustomItemEv@Qt_6 6.6.1
 _ZNK16QAbstract3DGraph18selectedLabelIndexEv@Qt_6 6.6.1
 _ZNK16QAbstract3DGraph20queriedGraphPositionEv@Qt_6 6.6.1
 _ZNK16QAbstract3DGraph21horizontalAspectRatioEv@Qt_6 6.6.1
 _ZNK16QAbstract3DGraph23selectedCustomItemIndexEv@Qt_6 6.6.1
 _ZNK16QAbstract3DGraph5sceneEv@Qt_6 6.6.1
 _ZNK16QAbstract3DGraph6localeEv@Qt_6 6.6.1
 _ZNK16QAbstract3DGraph6marginEv@Qt_6 6.6.1
 _ZNK16QAbstract3DGraph6themesEv@Qt_6 6.6.1
 _ZNK16QAbstract3DGraph7isPolarEv@Qt_6 6.6.1
 _ZNK16QAbstract3DGraph9hasSeriesEP17QAbstract3DSeries@Qt_6 6.6.1
 _ZNK16QScatter3DSeries10metaObjectEv@Qt_6 6.6.1
 _ZNK16QScatter3DSeries12selectedItemEv@Qt_6 6.6.1
 _ZNK16QScatter3DSeries5dptrcEv@Qt_6 6.6.1
 _ZNK16QScatter3DSeries8itemSizeEv@Qt_6 6.6.1
 _ZNK16QScatter3DSeries9dataProxyEv@Qt_6 6.6.1
 _ZNK16QSurface3DSeries10metaObjectEv@Qt_6 6.6.1
 _ZNK16QSurface3DSeries11textureFileEv@Qt_6 6.6.1
 _ZNK16QSurface3DSeries13selectedPointEv@Qt_6 6.6.1
 _ZNK16QSurface3DSeries14wireframeColorEv@Qt_6 6.6.1
 _ZNK16QSurface3DSeries20isFlatShadingEnabledEv@Qt_6 6.6.1
 _ZNK16QSurface3DSeries22isFlatShadingSupportedEv@Qt_6 6.6.1
 _ZNK16QSurface3DSeries5dptrcEv@Qt_6 6.6.1
 _ZNK16QSurface3DSeries7textureEv@Qt_6 6.6.1
 _ZNK16QSurface3DSeries8drawModeEv@Qt_6 6.6.1
 _ZNK16QSurface3DSeries9dataProxyEv@Qt_6 6.6.1
 _ZNK17QAbstract3DSeries10colorStyleEv@Qt_6 6.6.1
 _ZNK17QAbstract3DSeries10metaObjectEv@Qt_6 6.6.1
 _ZNK17QAbstract3DSeries12baseGradientEv@Qt_6 6.6.1
 _ZNK17QAbstract3DSeries12isMeshSmoothEv@Qt_6 6.6.1
 _ZNK17QAbstract3DSeries12meshRotationEv@Qt_6 6.6.1
 _ZNK17QAbstract3DSeries15itemLabelFormatEv@Qt_6 6.6.1
 _ZNK17QAbstract3DSeries15userDefinedMeshEv@Qt_6 6.6.1
 _ZNK17QAbstract3DSeries18isItemLabelVisibleEv@Qt_6 6.6.1
 _ZNK17QAbstract3DSeries19multiHighlightColorEv@Qt_6 6.6.1
 _ZNK17QAbstract3DSeries20singleHighlightColorEv@Qt_6 6.6.1
 _ZNK17QAbstract3DSeries22multiHighlightGradientEv@Qt_6 6.6.1
 _ZNK17QAbstract3DSeries23singleHighlightGradientEv@Qt_6 6.6.1
 _ZNK17QAbstract3DSeries4meshEv@Qt_6 6.6.1
 _ZNK17QAbstract3DSeries4nameEv@Qt_6 6.6.1
 _ZNK17QAbstract3DSeries4typeEv@Qt_6 6.6.1
 _ZNK17QAbstract3DSeries9baseColorEv@Qt_6 6.6.1
 _ZNK17QAbstract3DSeries9isVisibleEv@Qt_6 6.6.1
 _ZNK17QAbstract3DSeries9itemLabelEv@Qt_6 6.6.1
 _ZNK17QScatterDataProxy10metaObjectEv@Qt_6 6.6.1
 _ZNK17QScatterDataProxy5arrayEv@Qt_6 6.6.1
 _ZNK17QScatterDataProxy5dptrcEv@Qt_6 6.6.1
 _ZNK17QScatterDataProxy6itemAtEi@Qt_6 6.6.1
 _ZNK17QScatterDataProxy6seriesEv@Qt_6 6.6.1
 _ZNK17QScatterDataProxy9itemCountEv@Qt_6 6.6.1
 _ZNK17QSurfaceDataProxy10metaObjectEv@Qt_6 6.6.1
 _ZNK17QSurfaceDataProxy11columnCountEv@Qt_6 6.6.1
 _ZNK17QSurfaceDataProxy5arrayEv@Qt_6 6.6.1
 _ZNK17QSurfaceDataProxy5dptrcEv@Qt_6 6.6.1
 _ZNK17QSurfaceDataProxy6itemAtERK6QPoint@Qt_6 6.6.1
 _ZNK17QSurfaceDataProxy6itemAtEii@Qt_6 6.6.1
 _ZNK17QSurfaceDataProxy6seriesEv@Qt_6 6.6.1
 _ZNK17QSurfaceDataProxy8rowCountEv@Qt_6 6.6.1
 _ZNK17Scatter3DRenderer10metaObjectEv@Qt_6_PRIVATE_API 6.6.1
 _ZNK17Surface3DRenderer10metaObjectEv@Qt_6_PRIVATE_API 6.6.1
 _ZNK18QAbstractDataProxy10metaObjectEv@Qt_6 6.6.1
 _ZNK18QAbstractDataProxy4typeEv@Qt_6 6.6.1
 _ZNK19Scatter3DController10metaObjectEv@Qt_6_PRIVATE_API 6.6.1
 _ZNK19Surface3DController10metaObjectEv@Qt_6_PRIVATE_API 6.6.1
 _ZNK19Surface3DController18flipHorizontalGridEv@Qt_6_PRIVATE_API 6.6.1
 _ZNK20Abstract3DController10isOpenGLESEv@Qt_6_PRIVATE_API 6.6.1
 _ZNK20Abstract3DController10metaObjectEv@Qt_6_PRIVATE_API 6.6.1
 _ZNK20Abstract3DController10reflectionEv@Qt_6_PRIVATE_API 6.6.1
 _ZNK20Abstract3DController11activeThemeEv@Qt_6_PRIVATE_API 6.6.1
 _ZNK20Abstract3DController11customItemsEv@Qt_6_PRIVATE_API 6.6.1
 _ZNK20Abstract3DController12reflectivityEv@Qt_6_PRIVATE_API 6.6.1
 _ZNK20Abstract3DController12selectedAxisEv@Qt_6_PRIVATE_API 6.6.1
 _ZNK20Abstract3DController13inputHandlersEv@Qt_6_PRIVATE_API 6.6.1
 _ZNK20Abstract3DController13selectionModeEv@Qt_6_PRIVATE_API 6.6.1
 _ZNK20Abstract3DController13shadowQualityEv@Qt_6_PRIVATE_API 6.6.1
 _ZNK20Abstract3DController15isSlicingActiveEv@Qt_6_PRIVATE_API 6.6.1
 _ZNK20Abstract3DController15selectedElementEv@Qt_6_PRIVATE_API 6.6.1
 _ZNK20Abstract3DController16shadowsSupportedEv@Qt_6_PRIVATE_API 6.6.1
 _ZNK20Abstract3DController17isOrthoProjectionEv@Qt_6_PRIVATE_API 6.6.1
 _ZNK20Abstract3DController17optimizationHintsEv@Qt_6_PRIVATE_API 6.6.1
 _ZNK20Abstract3DController17radialLabelOffsetEv@Qt_6_PRIVATE_API 6.6.1
 _ZNK20Abstract3DController18selectedCustomItemEv@Qt_6_PRIVATE_API 6.6.1
 _ZNK20Abstract3DController18selectedLabelIndexEv@Qt_6_PRIVATE_API 6.6.1
 _ZNK20Abstract3DController20queriedGraphPositionEv@Qt_6_PRIVATE_API 6.6.1
 _ZNK20Abstract3DController21horizontalAspectRatioEv@Qt_6_PRIVATE_API 6.6.1
 _ZNK20Abstract3DController23selectedCustomItemIndexEv@Qt_6_PRIVATE_API 6.6.1
 _ZNK20Abstract3DController4axesEv@Qt_6_PRIVATE_API 6.6.1
 _ZNK20Abstract3DController5axisXEv@Qt_6_PRIVATE_API 6.6.1
 _ZNK20Abstract3DController5axisYEv@Qt_6_PRIVATE_API 6.6.1
 _ZNK20Abstract3DController5axisZEv@Qt_6_PRIVATE_API 6.6.1
 _ZNK20Abstract3DController6localeEv@Qt_6_PRIVATE_API 6.6.1
 _ZNK20Abstract3DController6marginEv@Qt_6_PRIVATE_API 6.6.1
 _ZNK20Abstract3DController6themesEv@Qt_6_PRIVATE_API 6.6.1
 _ZNK20Abstract3DController7isPolarEv@Qt_6_PRIVATE_API 6.6.1
 _ZNK20QTouch3DInputHandler10metaObjectEv@Qt_6 6.6.1
 _ZNK21QValue3DAxisFormatter10metaObjectEv@Qt_6 6.6.1
 _ZNK21QValue3DAxisFormatter10positionAtEf@Qt_6 6.6.1
 _ZNK21QValue3DAxisFormatter12labelStringsEv@Qt_6 6.6.1
 _ZNK21QValue3DAxisFormatter12populateCopyERS_@Qt_6 6.6.1
 _ZNK21QValue3DAxisFormatter13gridPositionsEv@Qt_6 6.6.1
 _ZNK21QValue3DAxisFormatter14allowNegativesEv@Qt_6 6.6.1
 _ZNK21QValue3DAxisFormatter14labelPositionsEv@Qt_6 6.6.1
 _ZNK21QValue3DAxisFormatter14stringForValueEdRK7QString@Qt_6 6.6.1
 _ZNK21QValue3DAxisFormatter16subGridPositionsEv@Qt_6 6.6.1
 _ZNK21QValue3DAxisFormatter17createNewInstanceEv@Qt_6 6.6.1
 _ZNK21QValue3DAxisFormatter4axisEv@Qt_6 6.6.1
 _ZNK21QValue3DAxisFormatter6localeEv@Qt_6 6.6.1
 _ZNK21QValue3DAxisFormatter7valueAtEf@Qt_6 6.6.1
 _ZNK21QValue3DAxisFormatter9allowZeroEv@Qt_6 6.6.1
 _ZNK22QItemModelBarDataProxy10columnRoleEv@Qt_6 6.6.1
 _ZNK22QItemModelBarDataProxy10metaObjectEv@Qt_6 6.6.1
 _ZNK22QItemModelBarDataProxy12rotationRoleEv@Qt_6 6.6.1
 _ZNK22QItemModelBarDataProxy13rowCategoriesEv@Qt_6 6.6.1
 _ZNK22QItemModelBarDataProxy14rowRolePatternEv@Qt_6 6.6.1
 _ZNK22QItemModelBarDataProxy14rowRoleReplaceEv@Qt_6 6.6.1
 _ZNK22QItemModelBarDataProxy16columnCategoriesEv@Qt_6 6.6.1
 _ZNK22QItemModelBarDataProxy16valueRolePatternEv@Qt_6 6.6.1
 _ZNK22QItemModelBarDataProxy16valueRoleReplaceEv@Qt_6 6.6.1
 _ZNK22QItemModelBarDataProxy17autoRowCategoriesEv@Qt_6 6.6.1
 _ZNK22QItemModelBarDataProxy17columnRolePatternEv@Qt_6 6.6.1
 _ZNK22QItemModelBarDataProxy17columnRoleReplaceEv@Qt_6 6.6.1
 _ZNK22QItemModelBarDataProxy18multiMatchBehaviorEv@Qt_6 6.6.1
 _ZNK22QItemModelBarDataProxy18useModelCategoriesEv@Qt_6 6.6.1
 _ZNK22QItemModelBarDataProxy19rotationRolePatternEv@Qt_6 6.6.1
 _ZNK22QItemModelBarDataProxy19rotationRoleReplaceEv@Qt_6 6.6.1
 _ZNK22QItemModelBarDataProxy20autoColumnCategoriesEv@Qt_6 6.6.1
 _ZNK22QItemModelBarDataProxy5dptrcEv@Qt_6 6.6.1
 _ZNK22QItemModelBarDataProxy7rowRoleEv@Qt_6 6.6.1
 _ZNK22QItemModelBarDataProxy9itemModelEv@Qt_6 6.6.1
 _ZNK22QItemModelBarDataProxy9valueRoleEv@Qt_6 6.6.1
 _ZNK23QAbstract3DInputHandler10metaObjectEv@Qt_6 6.6.1
 _ZNK23QAbstract3DInputHandler12prevDistanceEv@Qt_6 6.6.1
 _ZNK23QAbstract3DInputHandler13inputPositionEv@Qt_6 6.6.1
 _ZNK23QAbstract3DInputHandler16previousInputPosEv@Qt_6 6.6.1
 _ZNK23QAbstract3DInputHandler5sceneEv@Qt_6 6.6.1
 _ZNK23QAbstract3DInputHandler9inputViewEv@Qt_6 6.6.1
 _ZNK24QLogValue3DAxisFormatter10metaObjectEv@Qt_6 6.6.1
 _ZNK24QLogValue3DAxisFormatter10positionAtEf@Qt_6 6.6.1
 _ZNK24QLogValue3DAxisFormatter11autoSubGridEv@Qt_6 6.6.1
 _ZNK24QLogValue3DAxisFormatter12populateCopyER21QValue3DAxisFormatter@Qt_6 6.6.1
 _ZNK24QLogValue3DAxisFormatter14showEdgeLabelsEv@Qt_6 6.6.1
 _ZNK24QLogValue3DAxisFormatter17createNewInstanceEv@Qt_6 6.6.1
 _ZNK24QLogValue3DAxisFormatter4baseEv@Qt_6 6.6.1
 _ZNK24QLogValue3DAxisFormatter5dptrcEv@Qt_6 6.6.1
 _ZNK24QLogValue3DAxisFormatter7valueAtEf@Qt_6 6.6.1
 _ZNK26QHeightMapSurfaceDataProxy10autoScaleYEv@Qt_6 6.6.1
 _ZNK26QHeightMapSurfaceDataProxy10metaObjectEv@Qt_6 6.6.1
 _ZNK26QHeightMapSurfaceDataProxy13heightMapFileEv@Qt_6 6.6.1
 _ZNK26QHeightMapSurfaceDataProxy5dptrcEv@Qt_6 6.6.1
 _ZNK26QHeightMapSurfaceDataProxy9heightMapEv@Qt_6 6.6.1
 _ZNK26QHeightMapSurfaceDataProxy9maxXValueEv@Qt_6 6.6.1
 _ZNK26QHeightMapSurfaceDataProxy9maxYValueEv@Qt_6 6.6.1
 _ZNK26QHeightMapSurfaceDataProxy9maxZValueEv@Qt_6 6.6.1
 _ZNK26QHeightMapSurfaceDataProxy9minXValueEv@Qt_6 6.6.1
 _ZNK26QHeightMapSurfaceDataProxy9minYValueEv@Qt_6 6.6.1
 _ZNK26QHeightMapSurfaceDataProxy9minZValueEv@Qt_6 6.6.1
 _ZNK26QItemModelScatterDataProxy10metaObjectEv@Qt_6 6.6.1
 _ZNK26QItemModelScatterDataProxy12rotationRoleEv@Qt_6 6.6.1
 _ZNK26QItemModelScatterDataProxy15xPosRolePatternEv@Qt_6 6.6.1
 _ZNK26QItemModelScatterDataProxy15xPosRoleReplaceEv@Qt_6 6.6.1
 _ZNK26QItemModelScatterDataProxy15yPosRolePatternEv@Qt_6 6.6.1
 _ZNK26QItemModelScatterDataProxy15yPosRoleReplaceEv@Qt_6 6.6.1
 _ZNK26QItemModelScatterDataProxy15zPosRolePatternEv@Qt_6 6.6.1
 _ZNK26QItemModelScatterDataProxy15zPosRoleReplaceEv@Qt_6 6.6.1
 _ZNK26QItemModelScatterDataProxy19rotationRolePatternEv@Qt_6 6.6.1
 _ZNK26QItemModelScatterDataProxy19rotationRoleReplaceEv@Qt_6 6.6.1
 _ZNK26QItemModelScatterDataProxy5dptrcEv@Qt_6 6.6.1
 _ZNK26QItemModelScatterDataProxy8xPosRoleEv@Qt_6 6.6.1
 _ZNK26QItemModelScatterDataProxy8yPosRoleEv@Qt_6 6.6.1
 _ZNK26QItemModelScatterDataProxy8zPosRoleEv@Qt_6 6.6.1
 _ZNK26QItemModelScatterDataProxy9itemModelEv@Qt_6 6.6.1
 _ZNK26QItemModelSurfaceDataProxy10columnRoleEv@Qt_6 6.6.1
 _ZNK26QItemModelSurfaceDataProxy10metaObjectEv@Qt_6 6.6.1
 _ZNK26QItemModelSurfaceDataProxy13rowCategoriesEv@Qt_6 6.6.1
 _ZNK26QItemModelSurfaceDataProxy14rowRolePatternEv@Qt_6 6.6.1
 _ZNK26QItemModelSurfaceDataProxy14rowRoleReplaceEv@Qt_6 6.6.1
 _ZNK26QItemModelSurfaceDataProxy15xPosRolePatternEv@Qt_6 6.6.1
 _ZNK26QItemModelSurfaceDataProxy15xPosRoleReplaceEv@Qt_6 6.6.1
 _ZNK26QItemModelSurfaceDataProxy15yPosRolePatternEv@Qt_6 6.6.1
 _ZNK26QItemModelSurfaceDataProxy15yPosRoleReplaceEv@Qt_6 6.6.1
 _ZNK26QItemModelSurfaceDataProxy15zPosRolePatternEv@Qt_6 6.6.1
 _ZNK26QItemModelSurfaceDataProxy15zPosRoleReplaceEv@Qt_6 6.6.1
 _ZNK26QItemModelSurfaceDataProxy16columnCategoriesEv@Qt_6 6.6.1
 _ZNK26QItemModelSurfaceDataProxy17autoRowCategoriesEv@Qt_6 6.6.1
 _ZNK26QItemModelSurfaceDataProxy17columnRolePatternEv@Qt_6 6.6.1
 _ZNK26QItemModelSurfaceDataProxy17columnRoleReplaceEv@Qt_6 6.6.1
 _ZNK26QItemModelSurfaceDataProxy18multiMatchBehaviorEv@Qt_6 6.6.1
 _ZNK26QItemModelSurfaceDataProxy18useModelCategoriesEv@Qt_6 6.6.1
 _ZNK26QItemModelSurfaceDataProxy20autoColumnCategoriesEv@Qt_6 6.6.1
 _ZNK26QItemModelSurfaceDataProxy5dptrcEv@Qt_6 6.6.1
 _ZNK26QItemModelSurfaceDataProxy7rowRoleEv@Qt_6 6.6.1
 _ZNK26QItemModelSurfaceDataProxy8xPosRoleEv@Qt_6 6.6.1
 _ZNK26QItemModelSurfaceDataProxy8yPosRoleEv@Qt_6 6.6.1
 _ZNK26QItemModelSurfaceDataProxy8zPosRoleEv@Qt_6 6.6.1
 _ZNK26QItemModelSurfaceDataProxy9itemModelEv@Qt_6 6.6.1
 _ZNK7Q3DBars10barSpacingEv@Qt_6 6.6.1
 _ZNK7Q3DBars10columnAxisEv@Qt_6 6.6.1
 _ZNK7Q3DBars10floorLevelEv@Qt_6 6.6.1
 _ZNK7Q3DBars10metaObjectEv@Qt_6 6.6.1
 _ZNK7Q3DBars10seriesListEv@Qt_6 6.6.1
 _ZNK7Q3DBars12barThicknessEv@Qt_6 6.6.1
 _ZNK7Q3DBars13primarySeriesEv@Qt_6 6.6.1
 _ZNK7Q3DBars14selectedSeriesEv@Qt_6 6.6.1
 _ZNK7Q3DBars15barSeriesMarginEv@Qt_6 6.6.1
 _ZNK7Q3DBars20isBarSpacingRelativeEv@Qt_6 6.6.1
 _ZNK7Q3DBars20isMultiSeriesUniformEv@Qt_6 6.6.1
 _ZNK7Q3DBars4axesEv@Qt_6 6.6.1
 _ZNK7Q3DBars5dptrcEv@Qt_6 6.6.1
 _ZNK7Q3DBars7rowAxisEv@Qt_6 6.6.1
 _ZNK7Q3DBars9valueAxisEv@Qt_6 6.6.1
 _ZNK8Q3DLight10metaObjectEv@Qt_6 6.6.1
 _ZNK8Q3DScene10metaObjectEv@Qt_6 6.6.1
 _ZNK8Q3DScene11activeLightEv@Qt_6 6.6.1
 _ZNK8Q3DScene12activeCameraEv@Qt_6 6.6.1
 _ZNK8Q3DScene15isSlicingActiveEv@Qt_6 6.6.1
 _ZNK8Q3DScene16devicePixelRatioEv@Qt_6 6.6.1
 _ZNK8Q3DScene18graphPositionQueryEv@Qt_6 6.6.1
 _ZNK8Q3DScene18primarySubViewportEv@Qt_6 6.6.1
 _ZNK8Q3DScene20secondarySubViewportEv@Qt_6 6.6.1
 _ZNK8Q3DScene22selectionQueryPositionEv@Qt_6 6.6.1
 _ZNK8Q3DScene23isSecondarySubviewOnTopEv@Qt_6 6.6.1
 _ZNK8Q3DScene8viewportEv@Qt_6 6.6.1
 _ZNK8Q3DTheme10baseColorsEv@Qt_6 6.6.1
 _ZNK8Q3DTheme10colorStyleEv@Qt_6 6.6.1
 _ZNK8Q3DTheme10lightColorEv@Qt_6 6.6.1
 _ZNK8Q3DTheme10metaObjectEv@Qt_6 6.6.1
 _ZNK8Q3DTheme11windowColorEv@Qt_6 6.6.1
 _ZNK8Q3DTheme13baseGradientsEv@Qt_6 6.6.1
 _ZNK8Q3DTheme13gridLineColorEv@Qt_6 6.6.1
 _ZNK8Q3DTheme13isGridEnabledEv@Qt_6 6.6.1
 _ZNK8Q3DTheme13lightStrengthEv@Qt_6 6.6.1
 _ZNK8Q3DTheme14labelTextColorEv@Qt_6 6.6.1
 _ZNK8Q3DTheme15backgroundColorEv@Qt_6 6.6.1
 _ZNK8Q3DTheme19isBackgroundEnabledEv@Qt_6 6.6.1
 _ZNK8Q3DTheme19multiHighlightColorEv@Qt_6 6.6.1
 _ZNK8Q3DTheme20ambientLightStrengthEv@Qt_6 6.6.1
 _ZNK8Q3DTheme20isLabelBorderEnabledEv@Qt_6 6.6.1
 _ZNK8Q3DTheme20labelBackgroundColorEv@Qt_6 6.6.1
 _ZNK8Q3DTheme20singleHighlightColorEv@Qt_6 6.6.1
 _ZNK8Q3DTheme22highlightLightStrengthEv@Qt_6 6.6.1
 _ZNK8Q3DTheme22multiHighlightGradientEv@Qt_6 6.6.1
 _ZNK8Q3DTheme23singleHighlightGradientEv@Qt_6 6.6.1
 _ZNK8Q3DTheme24isLabelBackgroundEnabledEv@Qt_6 6.6.1
 _ZNK8Q3DTheme4fontEv@Qt_6 6.6.1
 _ZNK8Q3DTheme4typeEv@Qt_6 6.6.1
 _ZNK9Q3DCamera10metaObjectEv@Qt_6 6.6.1
 _ZNK9Q3DCamera12cameraPresetEv@Qt_6 6.6.1
 _ZNK9Q3DCamera12maxZoomLevelEv@Qt_6 6.6.1
 _ZNK9Q3DCamera12minZoomLevelEv@Qt_6 6.6.1
 _ZNK9Q3DCamera13wrapXRotationEv@Qt_6 6.6.1
 _ZNK9Q3DCamera13wrapYRotationEv@Qt_6 6.6.1
 _ZNK9Q3DCamera6targetEv@Qt_6 6.6.1
 _ZNK9Q3DCamera9xRotationEv@Qt_6 6.6.1
 _ZNK9Q3DCamera9yRotationEv@Qt_6 6.6.1
 _ZNK9Q3DCamera9zoomLevelEv@Qt_6 6.6.1
 _ZNK9Q3DObject10metaObjectEv@Qt_6 6.6.1
 _ZNK9Q3DObject7isDirtyEv@Qt_6 6.6.1
 _ZNK9Q3DObject8positionEv@Qt_6 6.6.1
 _ZTI10Q3DScatter@Qt_6 6.6.1
 _ZTI10Q3DSurface@Qt_6 6.6.1
 _ZTI12QBar3DSeries@Qt_6 6.6.1
 _ZTI12QValue3DAxis@Qt_6 6.6.1
 _ZTI13QBarDataProxy@Qt_6 6.6.1
 _ZTI13QCustom3DItem@Qt_6 6.6.1
 _ZTI14Bars3DRenderer@Qt_6_PRIVATE_API 6.6.1
 _ZTI14QCustom3DLabel@Qt_6 6.6.1
 _ZTI15Q3DInputHandler@Qt_6 6.6.1
 _ZTI15Q3DScenePrivate@Qt_6_PRIVATE_API 6.6.1
 _ZTI15Q3DThemePrivate@Qt_6_PRIVATE_API 6.6.1
 _ZTI15QAbstract3DAxis@Qt_6 6.6.1
 _ZTI15QCategory3DAxis@Qt_6 6.6.1
 _ZTI15QCustom3DVolume@Qt_6 6.6.1
 _ZTI16Bars3DController@Qt_6_PRIVATE_API 6.6.1
 _ZTI16QAbstract3DGraph@Qt_6 6.6.1
 _ZTI16QOpenGLFunctions@Qt_6 6.6.1
 _ZTI16QScatter3DSeries@Qt_6 6.6.1
 _ZTI16QSurface3DSeries@Qt_6 6.6.1
 _ZTI17QAbstract3DSeries@Qt_6 6.6.1
 _ZTI17QScatterDataProxy@Qt_6 6.6.1
 _ZTI17QSurfaceDataProxy@Qt_6 6.6.1
 _ZTI17Scatter3DRenderer@Qt_6_PRIVATE_API 6.6.1
 _ZTI17Surface3DRenderer@Qt_6_PRIVATE_API 6.6.1
 _ZTI18QAbstractDataProxy@Qt_6 6.6.1
 _ZTI19Scatter3DController@Qt_6_PRIVATE_API 6.6.1
 _ZTI19Surface3DController@Qt_6_PRIVATE_API 6.6.1
 _ZTI20Abstract3DController@Qt_6_PRIVATE_API 6.6.1
 _ZTI20QTouch3DInputHandler@Qt_6 6.6.1
 _ZTI21QValue3DAxisFormatter@Qt_6 6.6.1
 _ZTI22QItemModelBarDataProxy@Qt_6 6.6.1
 _ZTI23QAbstract3DInputHandler@Qt_6 6.6.1
 _ZTI24QLogValue3DAxisFormatter@Qt_6 6.6.1
 _ZTI26QHeightMapSurfaceDataProxy@Qt_6 6.6.1
 _ZTI26QItemModelScatterDataProxy@Qt_6 6.6.1
 _ZTI26QItemModelSurfaceDataProxy@Qt_6 6.6.1
 _ZTI7Q3DBars@Qt_6 6.6.1
 _ZTI8Q3DLight@Qt_6 6.6.1
 _ZTI8Q3DScene@Qt_6 6.6.1
 _ZTI8Q3DTheme@Qt_6 6.6.1
 _ZTI9Q3DCamera@Qt_6 6.6.1
 _ZTI9Q3DObject@Qt_6 6.6.1
 _ZTIZN9QMetaType17registerConverterI5QListI21QPersistentModelIndexE9QIterableI13QMetaSequenceEN9QtPrivate33QSequentialIterableConvertFunctorIS3_EEEEbT1_EUlPKvPvE_@Qt_6 6.6.1
 _ZTIZN9QMetaType17registerConverterI5QListI6QColorE9QIterableI13QMetaSequenceEN9QtPrivate33QSequentialIterableConvertFunctorIS3_EEEEbT1_EUlPKvPvE_@Qt_6 6.6.1
 _ZTIZN9QMetaType17registerConverterI5QListIiE9QIterableI13QMetaSequenceEN9QtPrivate33QSequentialIterableConvertFunctorIS2_EEEEbT1_EUlPKvPvE_@Qt_6 6.6.1
 _ZTIZN9QMetaType17registerConverterI5QListIjE9QIterableI13QMetaSequenceEN9QtPrivate33QSequentialIterableConvertFunctorIS2_EEEEbT1_EUlPKvPvE_@Qt_6 6.6.1
 _ZTIZN9QMetaType19registerMutableViewI5QListI21QPersistentModelIndexE9QIterableI13QMetaSequenceEN9QtPrivate37QSequentialIterableMutableViewFunctorIS3_EEEEbT1_EUlPvSB_E_@Qt_6 6.6.1
 _ZTIZN9QMetaType19registerMutableViewI5QListI6QColorE9QIterableI13QMetaSequenceEN9QtPrivate37QSequentialIterableMutableViewFunctorIS3_EEEEbT1_EUlPvSB_E_@Qt_6 6.6.1
 _ZTIZN9QMetaType19registerMutableViewI5QListIiE9QIterableI13QMetaSequenceEN9QtPrivate37QSequentialIterableMutableViewFunctorIS2_EEEEbT1_EUlPvSA_E_@Qt_6 6.6.1
 _ZTIZN9QMetaType19registerMutableViewI5QListIjE9QIterableI13QMetaSequenceEN9QtPrivate37QSequentialIterableMutableViewFunctorIS2_EEEEbT1_EUlPvSA_E_@Qt_6 6.6.1
 _ZTS10Q3DScatter@Qt_6 6.6.1
 _ZTS10Q3DSurface@Qt_6 6.6.1
 _ZTS12QBar3DSeries@Qt_6 6.6.1
 _ZTS12QValue3DAxis@Qt_6 6.6.1
 _ZTS13QBarDataProxy@Qt_6 6.6.1
 _ZTS13QCustom3DItem@Qt_6 6.6.1
 _ZTS14Bars3DRenderer@Qt_6_PRIVATE_API 6.6.1
 _ZTS14QCustom3DLabel@Qt_6 6.6.1
 _ZTS15Q3DInputHandler@Qt_6 6.6.1
 _ZTS15Q3DScenePrivate@Qt_6_PRIVATE_API 6.6.1
 _ZTS15Q3DThemePrivate@Qt_6_PRIVATE_API 6.6.1
 _ZTS15QAbstract3DAxis@Qt_6 6.6.1
 _ZTS15QCategory3DAxis@Qt_6 6.6.1
 _ZTS15QCustom3DVolume@Qt_6 6.6.1
 _ZTS16Bars3DController@Qt_6_PRIVATE_API 6.6.1
 _ZTS16QAbstract3DGraph@Qt_6 6.6.1
 _ZTS16QOpenGLFunctions@Qt_6 6.6.1
 _ZTS16QScatter3DSeries@Qt_6 6.6.1
 _ZTS16QSurface3DSeries@Qt_6 6.6.1
 _ZTS17QAbstract3DSeries@Qt_6 6.6.1
 _ZTS17QScatterDataProxy@Qt_6 6.6.1
 _ZTS17QSurfaceDataProxy@Qt_6 6.6.1
 _ZTS17Scatter3DRenderer@Qt_6_PRIVATE_API 6.6.1
 _ZTS17Surface3DRenderer@Qt_6_PRIVATE_API 6.6.1
 _ZTS18QAbstractDataProxy@Qt_6 6.6.1
 _ZTS19Scatter3DController@Qt_6_PRIVATE_API 6.6.1
 _ZTS19Surface3DController@Qt_6_PRIVATE_API 6.6.1
 _ZTS20Abstract3DController@Qt_6_PRIVATE_API 6.6.1
 _ZTS20QTouch3DInputHandler@Qt_6 6.6.1
 _ZTS21QValue3DAxisFormatter@Qt_6 6.6.1
 _ZTS22QItemModelBarDataProxy@Qt_6 6.6.1
 _ZTS23QAbstract3DInputHandler@Qt_6 6.6.1
 _ZTS24QLogValue3DAxisFormatter@Qt_6 6.6.1
 _ZTS26QHeightMapSurfaceDataProxy@Qt_6 6.6.1
 _ZTS26QItemModelScatterDataProxy@Qt_6 6.6.1
 _ZTS26QItemModelSurfaceDataProxy@Qt_6 6.6.1
 _ZTS7Q3DBars@Qt_6 6.6.1
 _ZTS8Q3DLight@Qt_6 6.6.1
 _ZTS8Q3DScene@Qt_6 6.6.1
 _ZTS8Q3DTheme@Qt_6 6.6.1
 _ZTS9Q3DCamera@Qt_6 6.6.1
 _ZTS9Q3DObject@Qt_6 6.6.1
 _ZTSZN9QMetaType17registerConverterI5QListI21QPersistentModelIndexE9QIterableI13QMetaSequenceEN9QtPrivate33QSequentialIterableConvertFunctorIS3_EEEEbT1_EUlPKvPvE_@Qt_6 6.6.1
 _ZTSZN9QMetaType17registerConverterI5QListI6QColorE9QIterableI13QMetaSequenceEN9QtPrivate33QSequentialIterableConvertFunctorIS3_EEEEbT1_EUlPKvPvE_@Qt_6 6.6.1
 _ZTSZN9QMetaType17registerConverterI5QListIiE9QIterableI13QMetaSequenceEN9QtPrivate33QSequentialIterableConvertFunctorIS2_EEEEbT1_EUlPKvPvE_@Qt_6 6.6.1
 _ZTSZN9QMetaType17registerConverterI5QListIjE9QIterableI13QMetaSequenceEN9QtPrivate33QSequentialIterableConvertFunctorIS2_EEEEbT1_EUlPKvPvE_@Qt_6 6.6.1
 _ZTSZN9QMetaType19registerMutableViewI5QListI21QPersistentModelIndexE9QIterableI13QMetaSequenceEN9QtPrivate37QSequentialIterableMutableViewFunctorIS3_EEEEbT1_EUlPvSB_E_@Qt_6 6.6.1
 _ZTSZN9QMetaType19registerMutableViewI5QListI6QColorE9QIterableI13QMetaSequenceEN9QtPrivate37QSequentialIterableMutableViewFunctorIS3_EEEEbT1_EUlPvSB_E_@Qt_6 6.6.1
 _ZTSZN9QMetaType19registerMutableViewI5QListIiE9QIterableI13QMetaSequenceEN9QtPrivate37QSequentialIterableMutableViewFunctorIS2_EEEEbT1_EUlPvSA_E_@Qt_6 6.6.1
 _ZTSZN9QMetaType19registerMutableViewI5QListIjE9QIterableI13QMetaSequenceEN9QtPrivate37QSequentialIterableMutableViewFunctorIS2_EEEEbT1_EUlPvSA_E_@Qt_6 6.6.1
 _ZTV10Q3DScatter@Qt_6 6.6.1
 _ZTV10Q3DSurface@Qt_6 6.6.1
 _ZTV12QBar3DSeries@Qt_6 6.6.1
 _ZTV12QValue3DAxis@Qt_6 6.6.1
 _ZTV13QBarDataProxy@Qt_6 6.6.1
 _ZTV13QCustom3DItem@Qt_6 6.6.1
 _ZTV14Bars3DRenderer@Qt_6_PRIVATE_API 6.6.1
 _ZTV14QCustom3DLabel@Qt_6 6.6.1
 _ZTV15Q3DInputHandler@Qt_6 6.6.1
 _ZTV15Q3DScenePrivate@Qt_6_PRIVATE_API 6.6.1
 _ZTV15Q3DThemePrivate@Qt_6_PRIVATE_API 6.6.1
 _ZTV15QAbstract3DAxis@Qt_6 6.6.1
 _ZTV15QCategory3DAxis@Qt_6 6.6.1
 _ZTV15QCustom3DVolume@Qt_6 6.6.1
 _ZTV16Bars3DController@Qt_6_PRIVATE_API 6.6.1
 _ZTV16QAbstract3DGraph@Qt_6 6.6.1
 _ZTV16QScatter3DSeries@Qt_6 6.6.1
 _ZTV16QSurface3DSeries@Qt_6 6.6.1
 _ZTV17QAbstract3DSeries@Qt_6 6.6.1
 _ZTV17QScatterDataProxy@Qt_6 6.6.1
 _ZTV17QSurfaceDataProxy@Qt_6 6.6.1
 _ZTV17Scatter3DRenderer@Qt_6_PRIVATE_API 6.6.1
 _ZTV17Surface3DRenderer@Qt_6_PRIVATE_API 6.6.1
 _ZTV18QAbstractDataProxy@Qt_6 6.6.1
 _ZTV19Scatter3DController@Qt_6_PRIVATE_API 6.6.1
 _ZTV19Surface3DController@Qt_6_PRIVATE_API 6.6.1
 _ZTV20Abstract3DController@Qt_6_PRIVATE_API 6.6.1
 _ZTV20QTouch3DInputHandler@Qt_6 6.6.1
 _ZTV21QValue3DAxisFormatter@Qt_6 6.6.1
 _ZTV22QItemModelBarDataProxy@Qt_6 6.6.1
 _ZTV23QAbstract3DInputHandler@Qt_6 6.6.1
 _ZTV24QLogValue3DAxisFormatter@Qt_6 6.6.1
 _ZTV26QHeightMapSurfaceDataProxy@Qt_6 6.6.1
 _ZTV26QItemModelScatterDataProxy@Qt_6 6.6.1
 _ZTV26QItemModelSurfaceDataProxy@Qt_6 6.6.1
 _ZTV7Q3DBars@Qt_6 6.6.1
 _ZTV8Q3DLight@Qt_6 6.6.1
 _ZTV8Q3DScene@Qt_6 6.6.1
 _ZTV8Q3DTheme@Qt_6 6.6.1
 _ZTV9Q3DCamera@Qt_6 6.6.1
 _ZTV9Q3DObject@Qt_6 6.6.1
 (optional=templinst)_ZZN9QMetaType21registerConverterImplI5QListI21QPersistentModelIndexE9QIterableI13QMetaSequenceEEEbSt8functionIFbPKvPvEES_S_E10unregister@Qt_6 6.6.1
 (optional=templinst)_ZZN9QMetaType21registerConverterImplI5QListI6QColorE9QIterableI13QMetaSequenceEEEbSt8functionIFbPKvPvEES_S_E10unregister@Qt_6 6.6.1
 (optional=templinst)_ZZN9QMetaType21registerConverterImplI5QListIiE9QIterableI13QMetaSequenceEEEbSt8functionIFbPKvPvEES_S_E10unregister@Qt_6 6.6.1
 (optional=templinst)_ZZN9QMetaType21registerConverterImplI5QListIjE9QIterableI13QMetaSequenceEEEbSt8functionIFbPKvPvEES_S_E10unregister@Qt_6 6.6.1
 (optional=templinst)_ZZN9QMetaType23registerMutableViewImplI5QListI21QPersistentModelIndexE9QIterableI13QMetaSequenceEEEbSt8functionIFbPvS8_EES_S_E10unregister@Qt_6 6.6.1
 (optional=templinst)_ZZN9QMetaType23registerMutableViewImplI5QListI6QColorE9QIterableI13QMetaSequenceEEEbSt8functionIFbPvS8_EES_S_E10unregister@Qt_6 6.6.1
 (optional=templinst)_ZZN9QMetaType23registerMutableViewImplI5QListIiE9QIterableI13QMetaSequenceEEEbSt8functionIFbPvS7_EES_S_E10unregister@Qt_6 6.6.1
 (optional=templinst)_ZZN9QMetaType23registerMutableViewImplI5QListIjE9QIterableI13QMetaSequenceEEEbSt8functionIFbPvS7_EES_S_E10unregister@Qt_6 6.6.1
 (c++)"non-virtual thunk to Q3DBars::~Q3DBars()@Qt_6" 6.6.1
 (c++)"non-virtual thunk to Q3DScatter::~Q3DScatter()@Qt_6" 6.6.1
 (c++)"non-virtual thunk to Q3DSurface::~Q3DSurface()@Qt_6" 6.6.1
 (c++)"non-virtual thunk to QAbstract3DGraph::~QAbstract3DGraph()@Qt_6" 6.6.1
